   1               		.file	"main.c"
   2               	__SREG__ = 0x3f
   3               	__SP_H__ = 0x3e
   4               	__SP_L__ = 0x3d
   5               	__tmp_reg__ = 0
   6               	__zero_reg__ = 1
   7               		.global __do_copy_data
   8               		.global __do_clear_bss
  16               	.Ltext0:
  17               	.global	main
  19               	main:
  20               	.LFB9:
  21               	.LM1:
  22               	/* prologue: frame size=1636 */
  23 0000 2F92      		push r2
  24 0002 3F92      		push r3
  25 0004 4F92      		push r4
  26 0006 5F92      		push r5
  27 0008 6F92      		push r6
  28 000a 7F92      		push r7
  29 000c 8F92      		push r8
  30 000e 9F92      		push r9
  31 0010 AF92      		push r10
  32 0012 BF92      		push r11
  33 0014 CF92      		push r12
  34 0016 DF92      		push r13
  35 0018 EF92      		push r14
  36 001a FF92      		push r15
  37 001c 0F93      		push r16
  38 001e 1F93      		push r17
  39 0020 CF93      		push r28
  40 0022 DF93      		push r29
  41 0024 CDB7      		in r28,__SP_L__
  42 0026 DEB7      		in r29,__SP_H__
  43 0028 C456      		subi r28,lo8(1636)
  44 002a D640      		sbci r29,hi8(1636)
  45 002c 0FB6      		in __tmp_reg__,__SREG__
  46 002e F894      		cli
  47 0030 DEBF      		out __SP_H__,r29
  48 0032 0FBE      		out __SREG__,__tmp_reg__
  49 0034 CDBF      		out __SP_L__,r28
  50               	/* prologue end (size=27) */
  51               	.LM2:
  52 0036 0E94 0000 		call Timer_init
  53               	.LM3:
  54 003a 82E0      		ldi r24,lo8(2)
  55 003c 0E94 0000 		call LCDInit
  56               	.LM4:
  57 0040 81B3      		in r24,49-0x20
  58 0042 8F67      		ori r24,lo8(127)
  59 0044 81BB      		out 49-0x20,r24
  60               	.LM5:
  61 0046 87B3      		in r24,55-0x20
  62 0048 8FEF      		ldi r24,lo8(-1)
  63 004a 87BB      		out 55-0x20,r24
  64               	.LM6:
  65 004c 84B3      		in r24,52-0x20
  66 004e 8C6F      		ori r24,lo8(-4)
  67 0050 84BB      		out 52-0x20,r24
  68 0052 C85A      		subi r28,lo8(-1624)
  69 0054 D94F      		sbci r29,hi8(-1624)
  70 0056 1982      		std Y+1,__zero_reg__
  71 0058 1882      		st Y,__zero_reg__
  72 005a C855      		subi r28,lo8(1624)
  73 005c D640      		sbci r29,hi8(1624)
  74               	.LVL0:
  75 005e C65A      		subi r28,lo8(-1626)
  76 0060 D94F      		sbci r29,hi8(-1626)
  77 0062 1982      		std Y+1,__zero_reg__
  78 0064 1882      		st Y,__zero_reg__
  79 0066 CA55      		subi r28,lo8(1626)
  80 0068 D640      		sbci r29,hi8(1626)
  81               	.LVL1:
  82 006a CA5A      		subi r28,lo8(-1622)
  83 006c D94F      		sbci r29,hi8(-1622)
  84 006e 1982      		std Y+1,__zero_reg__
  85 0070 1882      		st Y,__zero_reg__
  86 0072 C655      		subi r28,lo8(1622)
  87 0074 D640      		sbci r29,hi8(1622)
  88               	.LVL2:
  89               	.LM7:
  90 0076 9E01      		movw r18,r28
  91 0078 2959      		subi r18,lo8(-(1639))
  92 007a 394F      		sbci r19,hi8(-(1639))
  93 007c CD59      		subi r28,lo8(-1635)
  94 007e D94F      		sbci r29,hi8(-1635)
  95 0080 3983      		std Y+1,r19
  96 0082 2883      		st Y,r18
  97 0084 C356      		subi r28,lo8(1635)
  98 0086 D640      		sbci r29,hi8(1635)
  99               	.LVL3:
 100               	.L138:
 101               	.LM8:
 102 0088 83B3      		in r24,51-0x20
 103 008a 8130      		cpi r24,lo8(1)
 104 008c 01F4      		brne .L138
 105               	.L99:
 106               	.LM9:
 107 008e 83B3      		in r24,51-0x20
 108 0090 8130      		cpi r24,lo8(1)
 109 0092 01F0      		breq .L99
 110 0094 A0E0      		ldi r26,lo8(0)
 111               	.LVL4:
 112               	.L139:
 113               	.LM10:
 114 0096 83B3      		in r24,51-0x20
 115               	.LVL5:
 116 0098 8823      		tst r24
 117 009a 01F0      		breq .L139
 118 009c 50E0      		ldi r21,lo8(0)
 119               	.LM11:
 120 009e 6A2F      		mov r22,r26
 121 00a0 70E0      		ldi r23,lo8(0)
 122               	.LVL6:
 123               	.L7:
 124               	.LM12:
 125 00a2 879B      		sbis 48-0x20,7
 126 00a4 00C0      		rjmp .L8
 127               	.LM13:
 128 00a6 49B3      		in r20,57-0x20
 129 00a8 252F      		mov r18,r21
 130 00aa 30E0      		ldi r19,lo8(0)
 131 00ac 88E2      		ldi r24,lo8(40)
 132 00ae 90E0      		ldi r25,hi8(40)
 133 00b0 289F      		mul r18,r24
 134 00b2 F001      		movw r30,r0
 135 00b4 299F      		mul r18,r25
 136 00b6 F00D      		add r31,r0
 137 00b8 389F      		mul r19,r24
 138 00ba F00D      		add r31,r0
 139 00bc 1124      		clr r1
 140 00be E60F      		add r30,r22
 141 00c0 F71F      		adc r31,r23
 142 00c2 81E0      		ldi r24,lo8(1)
 143 00c4 90E0      		ldi r25,hi8(1)
 144 00c6 8C0F      		add r24,r28
 145 00c8 9D1F      		adc r25,r29
 146 00ca E80F      		add r30,r24
 147 00cc F91F      		adc r31,r25
 148 00ce 4083      		st Z,r20
 149               	.LM14:
 150 00d0 5F5F      		subi r21,lo8(-(1))
 151               	.L8:
 152               	.LM15:
 153 00d2 5832      		cpi r21,lo8(40)
 154 00d4 00F0      		brlo .L7
 155               	.L100:
 156               	.LM16:
 157 00d6 83B3      		in r24,51-0x20
 158 00d8 8230      		cpi r24,lo8(2)
 159 00da 01F0      		breq .L100
 160               	.LBB24:
 161               	.LBB25:
 162               	.LBB26:
 163               	.LBB27:
 164               	.LBB28:
 165               	.LBB29:
 166               	.LM17:
 167 00dc 80E4      		ldi r24,lo8(1600)
 168 00de 96E0      		ldi r25,hi8(1600)
 169               	.LVL7:
 170               	/* #APP */
 171 00e0 0197      		1: sbiw r24,1
 172 00e2 01F4      		brne 1b
 173               	/* #NOAPP */
 174               	.LBE29:
 175               	.LBE28:
 176               	.LBE27:
 177               	.LBE26:
 178               	.LBE25:
 179               	.LBE24:
 180               	.LM18:
 181 00e4 AF5F      		subi r26,lo8(-(1))
 182               	.LVL8:
 183               	.LM19:
 184 00e6 A832      		cpi r26,lo8(40)
 185 00e8 00F0      		brlo .L139
 186 00ea 00C0      		rjmp .L121
 187               	.LVL9:
 188               	.L13:
 189               	.LM20:
 190 00ec D801      		movw r26,r16
 191               	.LVL10:
 192 00ee 6C91      		ld r22,X
 193 00f0 70E0      		ldi r23,lo8(0)
 194               	.LVL11:
 195 00f2 8827      		clr r24
 196 00f4 77FD      		sbrc r23,7
 197 00f6 8095      		com r24
 198 00f8 982F      		mov r25,r24
 199 00fa 0E94 0000 		call __floatsisf
 200               	.LVL12:
 201 00fe 20E0      		ldi r18,lo8(0x3d800000)
 202 0100 30E0      		ldi r19,hi8(0x3d800000)
 203 0102 40E8      		ldi r20,hlo8(0x3d800000)
 204 0104 5DE3      		ldi r21,hhi8(0x3d800000)
 205 0106 0E94 0000 		call __mulsf3
 206               	.LM21:
 207 010a 9B01      		movw r18,r22
 208 010c AC01      		movw r20,r24
 209               	.LVL13:
 210 010e 0E94 0000 		call __mulsf3
 211               	.LVL14:
 212 0112 0E94 0000 		call __fixunssfsi
 213 0116 F801      		movw r30,r16
 214 0118 6083      		st Z,r22
 215               	.LM22:
 216 011a 6536      		cpi r22,lo8(101)
 217 011c 00F4      		brsh .L14
 218               	.LM23:
 219 011e 1082      		st Z,__zero_reg__
 220               	.L14:
 221               	.LM24:
 222 0120 D801      		movw r26,r16
 223 0122 6C91      		ld r22,X
 224 0124 6536      		cpi r22,lo8(101)
 225 0126 00F0      		brlo .L16
 226               	.LM25:
 227 0128 6456      		subi r22,lo8(-(-100))
 228 012a 6C93      		st X,r22
 229               	.LM26:
 230 012c 70E0      		ldi r23,lo8(0)
 231 012e 8827      		clr r24
 232 0130 77FD      		sbrc r23,7
 233 0132 8095      		com r24
 234 0134 982F      		mov r25,r24
 235 0136 0E94 0000 		call __floatsisf
 236 013a 2FE8      		ldi r18,lo8(0x3fd5c28f)
 237 013c 32EC      		ldi r19,hi8(0x3fd5c28f)
 238 013e 45ED      		ldi r20,hlo8(0x3fd5c28f)
 239 0140 5FE3      		ldi r21,hhi8(0x3fd5c28f)
 240 0142 0E94 0000 		call __mulsf3
 241 0146 0E94 0000 		call __fixunssfsi
 242 014a DC01      		movw r26,r24
 243 014c CB01      		movw r24,r22
 244               	.LM27:
 245 014e 69E1      		ldi r22,lo8(25)
 246 0150 0E94 0000 		call __udivmodqi4
 247               	.LM28:
 248 0154 99E1      		ldi r25,lo8(25)
 249 0156 899F      		mul r24,r25
 250 0158 C001      		movw r24,r0
 251 015a 1124      		clr r1
 252 015c F801      		movw r30,r16
 253 015e 8083      		st Z,r24
 254               	.L16:
 255               	.LM29:
 256 0160 D394      		inc r13
 257 0162 085D      		subi r16,lo8(-(40))
 258 0164 1F4F      		sbci r17,hi8(-(40))
 259 0166 F8E2      		ldi r31,lo8(40)
 260 0168 DF16      		cp r13,r31
 261 016a 01F0      		breq .+2
 262 016c 00C0      		rjmp .L13
 263 016e 0894      		sec
 264 0170 E11C      		adc r14,__zero_reg__
 265 0172 F11C      		adc r15,__zero_reg__
 266               	.LM30:
 267 0174 28E2      		ldi r18,lo8(40)
 268 0176 E216      		cp r14,r18
 269 0178 F104      		cpc r15,__zero_reg__
 270 017a 01F4      		brne .+2
 271 017c 00C0      		rjmp .L123
 272 017e 00C0      		rjmp .L19
 273               	.LVL15:
 274               	.L21:
 275               	.LM31:
 276 0180 D501      		movw r26,r10
 277 0182 6C91      		ld r22,X
 278 0184 F401      		movw r30,r8
 279 0186 2081      		ld r18,Z
 280 0188 620F      		add r22,r18
 281 018a 712D      		mov r23,__zero_reg__
 282 018c 711D      		adc r23,__zero_reg__
 283 018e D601      		movw r26,r12
 284 0190 2C91      		ld r18,X
 285 0192 620F      		add r22,r18
 286 0194 711D      		adc r23,__zero_reg__
 287 0196 F701      		movw r30,r14
 288 0198 2081      		ld r18,Z
 289 019a 620F      		add r22,r18
 290 019c 711D      		adc r23,__zero_reg__
 291 019e 8827      		clr r24
 292 01a0 77FD      		sbrc r23,7
 293 01a2 8095      		com r24
 294 01a4 982F      		mov r25,r24
 295 01a6 0E94 0000 		call __floatsisf
 296 01aa 20E0      		ldi r18,lo8(0x3e800000)
 297 01ac 30E0      		ldi r19,hi8(0x3e800000)
 298 01ae 40E8      		ldi r20,hlo8(0x3e800000)
 299 01b0 5EE3      		ldi r21,hhi8(0x3e800000)
 300 01b2 0E94 0000 		call __mulsf3
 301 01b6 0E94 0000 		call __fixunssfsi
 302 01ba D401      		movw r26,r8
 303 01bc 6C93      		st X,r22
 304               	.LM32:
 305 01be F501      		movw r30,r10
 306 01c0 6083      		st Z,r22
 307               	.LM33:
 308 01c2 D601      		movw r26,r12
 309 01c4 6C93      		st X,r22
 310               	.LM34:
 311 01c6 F701      		movw r30,r14
 312 01c8 6083      		st Z,r22
 313               	.LM35:
 314 01ca 7394      		inc r7
 315 01cc 28E2      		ldi r18,lo8(40)
 316 01ce 30E0      		ldi r19,hi8(40)
 317 01d0 820E      		add r8,r18
 318 01d2 931E      		adc r9,r19
 319 01d4 A20E      		add r10,r18
 320 01d6 B31E      		adc r11,r19
 321 01d8 C20E      		add r12,r18
 322 01da D31E      		adc r13,r19
 323 01dc E20E      		add r14,r18
 324 01de F31E      		adc r15,r19
 325 01e0 35E2      		ldi r19,lo8(37)
 326 01e2 7316      		cp r7,r19
 327 01e4 01F4      		brne .L21
 328 01e6 0F5F      		subi r16,lo8(-(1))
 329 01e8 1F4F      		sbci r17,hi8(-(1))
 330               	.LM36:
 331 01ea 0832      		cpi r16,40
 332 01ec 1105      		cpc r17,__zero_reg__
 333 01ee 01F4      		brne .+2
 334 01f0 00C0      		rjmp .L125
 335 01f2 00C0      		rjmp .L23
 336               	.LVL16:
 337               	.L25:
 338               	.LM37:
 339 01f4 D301      		movw r26,r6
 340 01f6 6C91      		ld r22,X
 341 01f8 70E0      		ldi r23,lo8(0)
 342 01fa 8827      		clr r24
 343 01fc 77FD      		sbrc r23,7
 344 01fe 8095      		com r24
 345 0200 982F      		mov r25,r24
 346 0202 0E94 0000 		call __floatsisf
 347 0206 20E0      		ldi r18,lo8(0x3d800000)
 348 0208 30E0      		ldi r19,hi8(0x3d800000)
 349 020a 40E8      		ldi r20,hlo8(0x3d800000)
 350 020c 5DE3      		ldi r21,hhi8(0x3d800000)
 351 020e 0E94 0000 		call __mulsf3
 352 0212 7B01      		movw r14,r22
 353 0214 8C01      		movw r16,r24
 354 0216 F501      		movw r30,r10
 355 0218 6081      		ld r22,Z
 356 021a 70E0      		ldi r23,lo8(0)
 357 021c 8827      		clr r24
 358 021e 77FD      		sbrc r23,7
 359 0220 8095      		com r24
 360 0222 982F      		mov r25,r24
 361 0224 0E94 0000 		call __floatsisf
 362 0228 20E0      		ldi r18,lo8(0x3e000000)
 363 022a 30E0      		ldi r19,hi8(0x3e000000)
 364 022c 40E0      		ldi r20,hlo8(0x3e000000)
 365 022e 5EE3      		ldi r21,hhi8(0x3e000000)
 366 0230 0E94 0000 		call __mulsf3
 367 0234 9B01      		movw r18,r22
 368 0236 AC01      		movw r20,r24
 369 0238 C801      		movw r24,r16
 370 023a B701      		movw r22,r14
 371 023c 0E94 0000 		call __addsf3
 372 0240 7B01      		movw r14,r22
 373 0242 8C01      		movw r16,r24
 374 0244 D401      		movw r26,r8
 375 0246 6C91      		ld r22,X
 376 0248 70E0      		ldi r23,lo8(0)
 377 024a 8827      		clr r24
 378 024c 77FD      		sbrc r23,7
 379 024e 8095      		com r24
 380 0250 982F      		mov r25,r24
 381 0252 0E94 0000 		call __floatsisf
 382 0256 20E0      		ldi r18,lo8(0x3d800000)
 383 0258 30E0      		ldi r19,hi8(0x3d800000)
 384 025a 40E8      		ldi r20,hlo8(0x3d800000)
 385 025c 5DE3      		ldi r21,hhi8(0x3d800000)
 386 025e 0E94 0000 		call __mulsf3
 387 0262 9B01      		movw r18,r22
 388 0264 AC01      		movw r20,r24
 389 0266 C801      		movw r24,r16
 390 0268 B701      		movw r22,r14
 391 026a 0E94 0000 		call __addsf3
 392 026e 7B01      		movw r14,r22
 393 0270 8C01      		movw r16,r24
 394 0272 F301      		movw r30,r6
 395 0274 6181      		ldd r22,Z+1
 396 0276 70E0      		ldi r23,lo8(0)
 397 0278 8827      		clr r24
 398 027a 77FD      		sbrc r23,7
 399 027c 8095      		com r24
 400 027e 982F      		mov r25,r24
 401 0280 0E94 0000 		call __floatsisf
 402 0284 20E0      		ldi r18,lo8(0x3e000000)
 403 0286 30E0      		ldi r19,hi8(0x3e000000)
 404 0288 40E0      		ldi r20,hlo8(0x3e000000)
 405 028a 5EE3      		ldi r21,hhi8(0x3e000000)
 406 028c 0E94 0000 		call __mulsf3
 407 0290 9B01      		movw r18,r22
 408 0292 AC01      		movw r20,r24
 409 0294 C801      		movw r24,r16
 410 0296 B701      		movw r22,r14
 411 0298 0E94 0000 		call __addsf3
 412 029c 7B01      		movw r14,r22
 413 029e 8C01      		movw r16,r24
 414 02a0 F501      		movw r30,r10
 415 02a2 6181      		ldd r22,Z+1
 416 02a4 70E0      		ldi r23,lo8(0)
 417 02a6 8827      		clr r24
 418 02a8 77FD      		sbrc r23,7
 419 02aa 8095      		com r24
 420 02ac 982F      		mov r25,r24
 421 02ae 0E94 0000 		call __floatsisf
 422 02b2 20E0      		ldi r18,lo8(0x3e800000)
 423 02b4 30E0      		ldi r19,hi8(0x3e800000)
 424 02b6 40E8      		ldi r20,hlo8(0x3e800000)
 425 02b8 5EE3      		ldi r21,hhi8(0x3e800000)
 426 02ba 0E94 0000 		call __mulsf3
 427 02be 9B01      		movw r18,r22
 428 02c0 AC01      		movw r20,r24
 429 02c2 C801      		movw r24,r16
 430 02c4 B701      		movw r22,r14
 431 02c6 0E94 0000 		call __addsf3
 432 02ca 7B01      		movw r14,r22
 433 02cc 8C01      		movw r16,r24
 434               	.LM38:
 435 02ce F401      		movw r30,r8
 436 02d0 6181      		ldd r22,Z+1
 437 02d2 70E0      		ldi r23,lo8(0)
 438 02d4 8827      		clr r24
 439 02d6 77FD      		sbrc r23,7
 440 02d8 8095      		com r24
 441 02da 982F      		mov r25,r24
 442 02dc 0E94 0000 		call __floatsisf
 443 02e0 20E0      		ldi r18,lo8(0x3e000000)
 444 02e2 30E0      		ldi r19,hi8(0x3e000000)
 445 02e4 40E0      		ldi r20,hlo8(0x3e000000)
 446 02e6 5EE3      		ldi r21,hhi8(0x3e000000)
 447 02e8 0E94 0000 		call __mulsf3
 448 02ec 9B01      		movw r18,r22
 449 02ee AC01      		movw r20,r24
 450 02f0 C801      		movw r24,r16
 451 02f2 B701      		movw r22,r14
 452 02f4 0E94 0000 		call __addsf3
 453 02f8 7B01      		movw r14,r22
 454 02fa 8C01      		movw r16,r24
 455 02fc F301      		movw r30,r6
 456 02fe 6281      		ldd r22,Z+2
 457 0300 70E0      		ldi r23,lo8(0)
 458 0302 8827      		clr r24
 459 0304 77FD      		sbrc r23,7
 460 0306 8095      		com r24
 461 0308 982F      		mov r25,r24
 462 030a 0E94 0000 		call __floatsisf
 463 030e 20E0      		ldi r18,lo8(0x3d800000)
 464 0310 30E0      		ldi r19,hi8(0x3d800000)
 465 0312 40E8      		ldi r20,hlo8(0x3d800000)
 466 0314 5DE3      		ldi r21,hhi8(0x3d800000)
 467 0316 0E94 0000 		call __mulsf3
 468 031a 9B01      		movw r18,r22
 469 031c AC01      		movw r20,r24
 470 031e C801      		movw r24,r16
 471 0320 B701      		movw r22,r14
 472 0322 0E94 0000 		call __addsf3
 473 0326 7B01      		movw r14,r22
 474 0328 8C01      		movw r16,r24
 475 032a F501      		movw r30,r10
 476 032c 6281      		ldd r22,Z+2
 477 032e 70E0      		ldi r23,lo8(0)
 478 0330 8827      		clr r24
 479 0332 77FD      		sbrc r23,7
 480 0334 8095      		com r24
 481 0336 982F      		mov r25,r24
 482 0338 0E94 0000 		call __floatsisf
 483 033c 20E0      		ldi r18,lo8(0x3e000000)
 484 033e 30E0      		ldi r19,hi8(0x3e000000)
 485 0340 40E0      		ldi r20,hlo8(0x3e000000)
 486 0342 5EE3      		ldi r21,hhi8(0x3e000000)
 487 0344 0E94 0000 		call __mulsf3
 488 0348 9B01      		movw r18,r22
 489 034a AC01      		movw r20,r24
 490 034c C801      		movw r24,r16
 491 034e B701      		movw r22,r14
 492 0350 0E94 0000 		call __addsf3
 493 0354 7B01      		movw r14,r22
 494 0356 8C01      		movw r16,r24
 495               	.LM39:
 496 0358 F401      		movw r30,r8
 497 035a 6281      		ldd r22,Z+2
 498 035c 70E0      		ldi r23,lo8(0)
 499 035e 8827      		clr r24
 500 0360 77FD      		sbrc r23,7
 501 0362 8095      		com r24
 502 0364 982F      		mov r25,r24
 503 0366 0E94 0000 		call __floatsisf
 504 036a 20E0      		ldi r18,lo8(0x3d800000)
 505 036c 30E0      		ldi r19,hi8(0x3d800000)
 506 036e 40E8      		ldi r20,hlo8(0x3d800000)
 507 0370 5DE3      		ldi r21,hhi8(0x3d800000)
 508 0372 0E94 0000 		call __mulsf3
 509 0376 9B01      		movw r18,r22
 510 0378 AC01      		movw r20,r24
 511 037a C801      		movw r24,r16
 512 037c B701      		movw r22,r14
 513 037e 0E94 0000 		call __addsf3
 514 0382 0E94 0000 		call __fixunssfsi
 515 0386 F501      		movw r30,r10
 516 0388 6183      		std Z+1,r22
 517               	.LM40:
 518 038a 5394      		inc r5
 519 038c 28E2      		ldi r18,lo8(40)
 520 038e 30E0      		ldi r19,hi8(40)
 521 0390 620E      		add r6,r18
 522 0392 731E      		adc r7,r19
 523 0394 A20E      		add r10,r18
 524 0396 B31E      		adc r11,r19
 525 0398 820E      		add r8,r18
 526 039a 931E      		adc r9,r19
 527 039c 37E2      		ldi r19,lo8(39)
 528 039e 5316      		cp r5,r19
 529 03a0 01F0      		breq .+2
 530 03a2 00C0      		rjmp .L25
 531 03a4 0894      		sec
 532 03a6 C11C      		adc r12,__zero_reg__
 533 03a8 D11C      		adc r13,__zero_reg__
 534               	.LM41:
 535 03aa 86E2      		ldi r24,lo8(38)
 536 03ac C816      		cp r12,r24
 537 03ae D104      		cpc r13,__zero_reg__
 538 03b0 01F4      		brne .+2
 539 03b2 00C0      		rjmp .L127
 540 03b4 00C0      		rjmp .L27
 541               	.LVL17:
 542               	.L29:
 543               	.LM42:
 544 03b6 C05B      		subi r28,lo8(-1616)
 545 03b8 D94F      		sbci r29,hi8(-1616)
 546 03ba A881      		ld r26,Y
 547 03bc B981      		ldd r27,Y+1
 548 03be C055      		subi r28,lo8(1616)
 549 03c0 D640      		sbci r29,hi8(1616)
 550 03c2 AC90      		ld r10,X
 551 03c4 BB24      		clr r11
 552 03c6 C25B      		subi r28,lo8(-1614)
 553 03c8 D94F      		sbci r29,hi8(-1614)
 554 03ca E881      		ld r30,Y
 555 03cc F981      		ldd r31,Y+1
 556 03ce CE54      		subi r28,lo8(1614)
 557 03d0 D640      		sbci r29,hi8(1614)
 558 03d2 2080      		ld r2,Z
 559 03d4 3324      		clr r3
 560 03d6 B501      		movw r22,r10
 561 03d8 6219      		sub r22,r2
 562 03da 7309      		sbc r23,r3
 563 03dc 8827      		clr r24
 564 03de 77FD      		sbrc r23,7
 565 03e0 8095      		com r24
 566 03e2 982F      		mov r25,r24
 567 03e4 0E94 0000 		call __floatsisf
 568 03e8 20E0      		ldi r18,lo8(0x3e800000)
 569 03ea 30E0      		ldi r19,hi8(0x3e800000)
 570 03ec 40E8      		ldi r20,hlo8(0x3e800000)
 571 03ee 5EE3      		ldi r21,hhi8(0x3e800000)
 572 03f0 0E94 0000 		call __mulsf3
 573 03f4 7B01      		movw r14,r22
 574 03f6 8C01      		movw r16,r24
 575               	.LVL18:
 576               	.LM43:
 577 03f8 C05B      		subi r28,lo8(-1616)
 578 03fa D94F      		sbci r29,hi8(-1616)
 579 03fc E881      		ld r30,Y
 580 03fe F981      		ldd r31,Y+1
 581 0400 C055      		subi r28,lo8(1616)
 582 0402 D640      		sbci r29,hi8(1616)
 583 0404 6181      		ldd r22,Z+1
 584 0406 70E0      		ldi r23,lo8(0)
 585 0408 C25B      		subi r28,lo8(-1614)
 586 040a D94F      		sbci r29,hi8(-1614)
 587 040c E881      		ld r30,Y
 588 040e F981      		ldd r31,Y+1
 589 0410 CE54      		subi r28,lo8(1614)
 590 0412 D640      		sbci r29,hi8(1614)
 591 0414 2181      		ldd r18,Z+1
 592 0416 621B      		sub r22,r18
 593 0418 7109      		sbc r23,__zero_reg__
 594 041a 8827      		clr r24
 595 041c 77FD      		sbrc r23,7
 596 041e 8095      		com r24
 597 0420 982F      		mov r25,r24
 598 0422 0E94 0000 		call __floatsisf
 599 0426 20E0      		ldi r18,lo8(0x3f000000)
 600 0428 30E0      		ldi r19,hi8(0x3f000000)
 601 042a 40E0      		ldi r20,hlo8(0x3f000000)
 602 042c 5FE3      		ldi r21,hhi8(0x3f000000)
 603 042e 0E94 0000 		call __mulsf3
 604 0432 9B01      		movw r18,r22
 605 0434 AC01      		movw r20,r24
 606 0436 C801      		movw r24,r16
 607 0438 B701      		movw r22,r14
 608               	.LVL19:
 609 043a 0E94 0000 		call __addsf3
 610               	.LVL20:
 611 043e 3B01      		movw r6,r22
 612 0440 4C01      		movw r8,r24
 613               	.LM44:
 614 0442 C05B      		subi r28,lo8(-1616)
 615 0444 D94F      		sbci r29,hi8(-1616)
 616 0446 E881      		ld r30,Y
 617 0448 F981      		ldd r31,Y+1
 618 044a C055      		subi r28,lo8(1616)
 619 044c D640      		sbci r29,hi8(1616)
 620 044e 4280      		ldd r4,Z+2
 621               	.LVL21:
 622 0450 5524      		clr r5
 623 0452 C25B      		subi r28,lo8(-1614)
 624 0454 D94F      		sbci r29,hi8(-1614)
 625 0456 E881      		ld r30,Y
 626 0458 F981      		ldd r31,Y+1
 627 045a CE54      		subi r28,lo8(1614)
 628 045c D640      		sbci r29,hi8(1614)
 629 045e E280      		ldd r14,Z+2
 630 0460 FF24      		clr r15
 631 0462 B201      		movw r22,r4
 632 0464 6E19      		sub r22,r14
 633 0466 7F09      		sbc r23,r15
 634 0468 8827      		clr r24
 635 046a 77FD      		sbrc r23,7
 636 046c 8095      		com r24
 637 046e 982F      		mov r25,r24
 638 0470 0E94 0000 		call __floatsisf
 639 0474 20E0      		ldi r18,lo8(0x3e800000)
 640 0476 30E0      		ldi r19,hi8(0x3e800000)
 641 0478 40E8      		ldi r20,hlo8(0x3e800000)
 642 047a 5EE3      		ldi r21,hhi8(0x3e800000)
 643 047c 0E94 0000 		call __mulsf3
 644 0480 9B01      		movw r18,r22
 645 0482 AC01      		movw r20,r24
 646 0484 C401      		movw r24,r8
 647 0486 B301      		movw r22,r6
 648               	.LVL22:
 649 0488 0E94 0000 		call __addsf3
 650               	.LVL23:
 651 048c 3B01      		movw r6,r22
 652 048e 4C01      		movw r8,r24
 653               	.LVL24:
 654               	.LM45:
 655 0490 E218      		sub r14,r2
 656 0492 F308      		sbc r15,r3
 657 0494 0027      		clr r16
 658 0496 F7FC      		sbrc r15,7
 659 0498 0095      		com r16
 660 049a 102F      		mov r17,r16
 661 049c C801      		movw r24,r16
 662 049e B701      		movw r22,r14
 663 04a0 0E94 0000 		call __floatsisf
 664 04a4 20E0      		ldi r18,lo8(0x3e800000)
 665 04a6 30E0      		ldi r19,hi8(0x3e800000)
 666 04a8 40E8      		ldi r20,hlo8(0x3e800000)
 667 04aa 5EE3      		ldi r21,hhi8(0x3e800000)
 668 04ac 0E94 0000 		call __mulsf3
 669 04b0 7B01      		movw r14,r22
 670 04b2 8C01      		movw r16,r24
 671               	.LM46:
 672 04b4 C45B      		subi r28,lo8(-1612)
 673 04b6 D94F      		sbci r29,hi8(-1612)
 674 04b8 A881      		ld r26,Y
 675 04ba B981      		ldd r27,Y+1
 676 04bc CC54      		subi r28,lo8(1612)
 677 04be D640      		sbci r29,hi8(1612)
 678 04c0 6C91      		ld r22,X
 679 04c2 70E0      		ldi r23,lo8(0)
 680 04c4 FD01      		movw r30,r26
 681 04c6 2281      		ldd r18,Z+2
 682 04c8 621B      		sub r22,r18
 683 04ca 7109      		sbc r23,__zero_reg__
 684 04cc 8827      		clr r24
 685 04ce 77FD      		sbrc r23,7
 686 04d0 8095      		com r24
 687 04d2 982F      		mov r25,r24
 688 04d4 0E94 0000 		call __floatsisf
 689 04d8 20E0      		ldi r18,lo8(0x3f000000)
 690 04da 30E0      		ldi r19,hi8(0x3f000000)
 691 04dc 40E0      		ldi r20,hlo8(0x3f000000)
 692 04de 5FE3      		ldi r21,hhi8(0x3f000000)
 693 04e0 0E94 0000 		call __mulsf3
 694 04e4 9B01      		movw r18,r22
 695 04e6 AC01      		movw r20,r24
 696 04e8 C801      		movw r24,r16
 697 04ea B701      		movw r22,r14
 698               	.LVL25:
 699 04ec 0E94 0000 		call __addsf3
 700               	.LVL26:
 701 04f0 7B01      		movw r14,r22
 702 04f2 8C01      		movw r16,r24
 703               	.LM47:
 704 04f4 A418      		sub r10,r4
 705 04f6 B508      		sbc r11,r5
 706 04f8 CC24      		clr r12
 707 04fa B7FC      		sbrc r11,7
 708 04fc C094      		com r12
 709 04fe DC2C      		mov r13,r12
 710 0500 C601      		movw r24,r12
 711 0502 B501      		movw r22,r10
 712 0504 0E94 0000 		call __floatsisf
 713 0508 20E0      		ldi r18,lo8(0x3e800000)
 714 050a 30E0      		ldi r19,hi8(0x3e800000)
 715 050c 40E8      		ldi r20,hlo8(0x3e800000)
 716 050e 5EE3      		ldi r21,hhi8(0x3e800000)
 717 0510 0E94 0000 		call __mulsf3
 718 0514 9B01      		movw r18,r22
 719 0516 AC01      		movw r20,r24
 720 0518 C801      		movw r24,r16
 721 051a B701      		movw r22,r14
 722               	.LVL27:
 723 051c 0E94 0000 		call __addsf3
 724               	.LVL28:
 725 0520 5B01      		movw r10,r22
 726 0522 6C01      		movw r12,r24
 727               	.LVL29:
 728               	.LM48:
 729 0524 A401      		movw r20,r8
 730 0526 9301      		movw r18,r6
 731 0528 C401      		movw r24,r8
 732 052a B301      		movw r22,r6
 733 052c 0E94 0000 		call __mulsf3
 734 0530 0E94 0000 		call __fixunssfsi
 735 0534 80E0      		ldi r24,lo8(0)
 736 0536 90E0      		ldi r25,hi8(0)
 737 0538 0E94 0000 		call __floatunsisf
 738 053c 7B01      		movw r14,r22
 739 053e 8C01      		movw r16,r24
 740 0540 A601      		movw r20,r12
 741 0542 9501      		movw r18,r10
 742 0544 C601      		movw r24,r12
 743 0546 B501      		movw r22,r10
 744 0548 0E94 0000 		call __mulsf3
 745 054c 9B01      		movw r18,r22
 746 054e AC01      		movw r20,r24
 747 0550 C801      		movw r24,r16
 748 0552 B701      		movw r22,r14
 749 0554 0E94 0000 		call __addsf3
 750 0558 0E94 0000 		call __fixunssfsi
 751               	.LM49:
 752 055c 80E0      		ldi r24,lo8(0)
 753 055e 90E0      		ldi r25,hi8(0)
 754               	.LVL30:
 755 0560 0E94 0000 		call __floatunsisf
 756               	.LVL31:
 757 0564 0E94 0000 		call sqrt
 758 0568 0E94 0000 		call __fixunssfsi
 759 056c AB01      		movw r20,r22
 760 056e BC01      		movw r22,r24
 761 0570 542E      		mov r5,r20
 762               	.LVL32:
 763 0572 C45B      		subi r28,lo8(-1612)
 764 0574 D94F      		sbci r29,hi8(-1612)
 765 0576 E881      		ld r30,Y
 766 0578 F981      		ldd r31,Y+1
 767 057a CC54      		subi r28,lo8(1612)
 768 057c D640      		sbci r29,hi8(1612)
 769 057e 4183      		std Z+1,r20
 770               	.LM50:
 771 0580 242F      		mov r18,r20
 772 0582 30E0      		ldi r19,lo8(0)
 773               	.LVL33:
 774 0584 C25A      		subi r28,lo8(-1630)
 775 0586 D94F      		sbci r29,hi8(-1630)
 776 0588 F881      		ld r31,Y
 777 058a CE55      		subi r28,lo8(1630)
 778 058c D640      		sbci r29,hi8(1630)
 779 058e 8F2F      		mov r24,r31
 780               	.LVL34:
 781 0590 90E0      		ldi r25,lo8(0)
 782               	.LVL35:
 783 0592 0296      		adiw r24,2
 784               	.LVL36:
 785 0594 8217      		cp r24,r18
 786 0596 9307      		cpc r25,r19
 787 0598 04F4      		brge .L30
 788 059a C25A      		subi r28,lo8(-1630)
 789 059c D94F      		sbci r29,hi8(-1630)
 790 059e 4883      		st Y,r20
 791 05a0 CE55      		subi r28,lo8(1630)
 792 05a2 D640      		sbci r29,hi8(1630)
 793               	.LVL37:
 794               	.L30:
 795               	.LM51:
 796 05a4 A401      		movw r20,r8
 797 05a6 9301      		movw r18,r6
 798 05a8 C601      		movw r24,r12
 799 05aa B501      		movw r22,r10
 800 05ac 0E94 0000 		call __divsf3
 801               	.LVL38:
 802 05b0 7B01      		movw r14,r22
 803 05b2 8C01      		movw r16,r24
 804               	.LVL39:
 805               	.LM52:
 806 05b4 28EB      		ldi r18,lo8(0xbe851eb8)
 807 05b6 3EE1      		ldi r19,hi8(0xbe851eb8)
 808 05b8 45E8      		ldi r20,hlo8(0xbe851eb8)
 809 05ba 5EEB      		ldi r21,hhi8(0xbe851eb8)
 810 05bc 0E94 0000 		call __gesf2
 811 05c0 8823      		tst r24
 812 05c2 04F0      		brlt .L32
 813 05c4 28EB      		ldi r18,lo8(0x3e851eb8)
 814 05c6 3EE1      		ldi r19,hi8(0x3e851eb8)
 815 05c8 45E8      		ldi r20,hlo8(0x3e851eb8)
 816 05ca 5EE3      		ldi r21,hhi8(0x3e851eb8)
 817 05cc C801      		movw r24,r16
 818 05ce B701      		movw r22,r14
 819 05d0 0E94 0000 		call __ltsf2
 820 05d4 8823      		tst r24
 821 05d6 04F4      		brge .L32
 822               	.LM53:
 823 05d8 C05B      		subi r28,lo8(-1616)
 824 05da D94F      		sbci r29,hi8(-1616)
 825 05dc E881      		ld r30,Y
 826 05de F981      		ldd r31,Y+1
 827 05e0 C055      		subi r28,lo8(1616)
 828 05e2 D640      		sbci r29,hi8(1616)
 829 05e4 8181      		ldd r24,Z+1
 830 05e6 5816      		cp r5,r24
 831 05e8 00F0      		brlo .L37
 832               	.LVL40:
 833 05ea C25B      		subi r28,lo8(-1614)
 834 05ec D94F      		sbci r29,hi8(-1614)
 835 05ee E881      		ld r30,Y
 836 05f0 F981      		ldd r31,Y+1
 837 05f2 CE54      		subi r28,lo8(1614)
 838 05f4 D640      		sbci r29,hi8(1614)
 839 05f6 8181      		ldd r24,Z+1
 840 05f8 5816      		cp r5,r24
 841 05fa 00F4      		brsh .L32
 842               	.L37:
 843 05fc C45B      		subi r28,lo8(-1612)
 844 05fe D94F      		sbci r29,hi8(-1612)
 845 0600 E881      		ld r30,Y
 846 0602 F981      		ldd r31,Y+1
 847 0604 CC54      		subi r28,lo8(1612)
 848 0606 D640      		sbci r29,hi8(1612)
 849 0608 1182      		std Z+1,__zero_reg__
 850               	.LVL41:
 851               	.L32:
 852               	.LM54:
 853 060a 25E8      		ldi r18,lo8(0x3f11eb85)
 854 060c 3BEE      		ldi r19,hi8(0x3f11eb85)
 855 060e 41E1      		ldi r20,hlo8(0x3f11eb85)
 856 0610 5FE3      		ldi r21,hhi8(0x3f11eb85)
 857 0612 C801      		movw r24,r16
 858 0614 B701      		movw r22,r14
 859 0616 0E94 0000 		call __gtsf2
 860 061a 1816      		cp __zero_reg__,r24
 861 061c 04F4      		brge .L39
 862 061e 24EA      		ldi r18,lo8(0x3fdd70a4)
 863 0620 30E7      		ldi r19,hi8(0x3fdd70a4)
 864 0622 4DED      		ldi r20,hlo8(0x3fdd70a4)
 865 0624 5FE3      		ldi r21,hhi8(0x3fdd70a4)
 866 0626 C801      		movw r24,r16
 867 0628 B701      		movw r22,r14
 868 062a 0E94 0000 		call __ltsf2
 869 062e 8823      		tst r24
 870 0630 04F4      		brge .L39
 871               	.LM55:
 872 0632 C45B      		subi r28,lo8(-1612)
 873 0634 D94F      		sbci r29,hi8(-1612)
 874 0636 E881      		ld r30,Y
 875 0638 F981      		ldd r31,Y+1
 876 063a CC54      		subi r28,lo8(1612)
 877 063c D640      		sbci r29,hi8(1612)
 878 063e 9181      		ldd r25,Z+1
 879 0640 C05B      		subi r28,lo8(-1616)
 880 0642 D94F      		sbci r29,hi8(-1616)
 881 0644 E881      		ld r30,Y
 882 0646 F981      		ldd r31,Y+1
 883 0648 C055      		subi r28,lo8(1616)
 884 064a D640      		sbci r29,hi8(1616)
 885 064c 8281      		ldd r24,Z+2
 886 064e 9817      		cp r25,r24
 887 0650 00F0      		brlo .L44
 888 0652 C25B      		subi r28,lo8(-1614)
 889 0654 D94F      		sbci r29,hi8(-1614)
 890 0656 A881      		ld r26,Y
 891 0658 B981      		ldd r27,Y+1
 892 065a CE54      		subi r28,lo8(1614)
 893 065c D640      		sbci r29,hi8(1614)
 894 065e 8C91      		ld r24,X
 895 0660 9817      		cp r25,r24
 896 0662 00F4      		brsh .L39
 897               	.L44:
 898 0664 C45B      		subi r28,lo8(-1612)
 899 0666 D94F      		sbci r29,hi8(-1612)
 900 0668 E881      		ld r30,Y
 901 066a F981      		ldd r31,Y+1
 902 066c CC54      		subi r28,lo8(1612)
 903 066e D640      		sbci r29,hi8(1612)
 904 0670 1182      		std Z+1,__zero_reg__
 905               	.L39:
 906               	.LM56:
 907 0672 22E5      		ldi r18,lo8(0x406eb852)
 908 0674 38EB      		ldi r19,hi8(0x406eb852)
 909 0676 4EE6      		ldi r20,hlo8(0x406eb852)
 910 0678 50E4      		ldi r21,hhi8(0x406eb852)
 911 067a C801      		movw r24,r16
 912 067c B701      		movw r22,r14
 913 067e 0E94 0000 		call __gtsf2
 914 0682 1816      		cp __zero_reg__,r24
 915 0684 04F0      		brlt .L46
 916 0686 22E5      		ldi r18,lo8(0xc06eb852)
 917 0688 38EB      		ldi r19,hi8(0xc06eb852)
 918 068a 4EE6      		ldi r20,hlo8(0xc06eb852)
 919 068c 50EC      		ldi r21,hhi8(0xc06eb852)
 920 068e C801      		movw r24,r16
 921 0690 B701      		movw r22,r14
 922 0692 0E94 0000 		call __ltsf2
 923 0696 8823      		tst r24
 924 0698 04F4      		brge .L48
 925               	.L46:
 926               	.LM57:
 927 069a C45B      		subi r28,lo8(-1612)
 928 069c D94F      		sbci r29,hi8(-1612)
 929 069e E881      		ld r30,Y
 930 06a0 F981      		ldd r31,Y+1
 931 06a2 CC54      		subi r28,lo8(1612)
 932 06a4 D640      		sbci r29,hi8(1612)
 933 06a6 9181      		ldd r25,Z+1
 934 06a8 8281      		ldd r24,Z+2
 935 06aa 9817      		cp r25,r24
 936 06ac 00F0      		brlo .L50
 937 06ae 8081      		ld r24,Z
 938 06b0 9817      		cp r25,r24
 939 06b2 00F4      		brsh .L48
 940               	.L50:
 941 06b4 C45B      		subi r28,lo8(-1612)
 942 06b6 D94F      		sbci r29,hi8(-1612)
 943 06b8 E881      		ld r30,Y
 944 06ba F981      		ldd r31,Y+1
 945 06bc CC54      		subi r28,lo8(1612)
 946 06be D640      		sbci r29,hi8(1612)
 947 06c0 1182      		std Z+1,__zero_reg__
 948               	.L48:
 949               	.LM58:
 950 06c2 24EA      		ldi r18,lo8(0xbfdd70a4)
 951 06c4 30E7      		ldi r19,hi8(0xbfdd70a4)
 952 06c6 4DED      		ldi r20,hlo8(0xbfdd70a4)
 953 06c8 5FEB      		ldi r21,hhi8(0xbfdd70a4)
 954 06ca C801      		movw r24,r16
 955 06cc B701      		movw r22,r14
 956 06ce 0E94 0000 		call __gtsf2
 957 06d2 1816      		cp __zero_reg__,r24
 958 06d4 04F4      		brge .L52
 959 06d6 25E8      		ldi r18,lo8(0xbf11eb85)
 960 06d8 3BEE      		ldi r19,hi8(0xbf11eb85)
 961 06da 41E1      		ldi r20,hlo8(0xbf11eb85)
 962 06dc 5FEB      		ldi r21,hhi8(0xbf11eb85)
 963 06de C801      		movw r24,r16
 964 06e0 B701      		movw r22,r14
 965 06e2 0E94 0000 		call __ltsf2
 966 06e6 8823      		tst r24
 967 06e8 04F4      		brge .L52
 968               	.LM59:
 969 06ea C45B      		subi r28,lo8(-1612)
 970 06ec D94F      		sbci r29,hi8(-1612)
 971 06ee E881      		ld r30,Y
 972 06f0 F981      		ldd r31,Y+1
 973 06f2 CC54      		subi r28,lo8(1612)
 974 06f4 D640      		sbci r29,hi8(1612)
 975 06f6 9181      		ldd r25,Z+1
 976 06f8 C25B      		subi r28,lo8(-1614)
 977 06fa D94F      		sbci r29,hi8(-1614)
 978 06fc E881      		ld r30,Y
 979 06fe F981      		ldd r31,Y+1
 980 0700 CE54      		subi r28,lo8(1614)
 981 0702 D640      		sbci r29,hi8(1614)
 982 0704 8281      		ldd r24,Z+2
 983 0706 9817      		cp r25,r24
 984 0708 00F0      		brlo .L57
 985 070a C05B      		subi r28,lo8(-1616)
 986 070c D94F      		sbci r29,hi8(-1616)
 987 070e A881      		ld r26,Y
 988 0710 B981      		ldd r27,Y+1
 989 0712 C055      		subi r28,lo8(1616)
 990 0714 D640      		sbci r29,hi8(1616)
 991 0716 8C91      		ld r24,X
 992 0718 9817      		cp r25,r24
 993 071a 00F4      		brsh .L52
 994               	.L57:
 995 071c C45B      		subi r28,lo8(-1612)
 996 071e D94F      		sbci r29,hi8(-1612)
 997 0720 E881      		ld r30,Y
 998 0722 F981      		ldd r31,Y+1
 999 0724 CC54      		subi r28,lo8(1612)
 1000 0726 D640      		sbci r29,hi8(1612)
 1001 0728 1182      		std Z+1,__zero_reg__
 1002               	.L52:
 1003               	.LM60:
 1004 072a C45B      		subi r28,lo8(-1612)
 1005 072c D94F      		sbci r29,hi8(-1612)
 1006 072e E881      		ld r30,Y
 1007 0730 F981      		ldd r31,Y+1
 1008 0732 CC54      		subi r28,lo8(1612)
 1009 0734 D640      		sbci r29,hi8(1612)
 1010 0736 9181      		ldd r25,Z+1
 1011 0738 9A31      		cpi r25,lo8(26)
 1012 073a 00F4      		brsh .+2
 1013 073c 00C0      		rjmp .L137
 1014               	.LM61:
 1015 073e 892F      		mov r24,r25
 1016 0740 8A51      		subi r24,lo8(-(-26))
 1017 0742 8530      		cpi r24,lo8(5)
 1018 0744 00F4      		brsh .L62
 1019               	.LM62:
 1020 0746 C05B      		subi r28,lo8(-1616)
 1021 0748 D94F      		sbci r29,hi8(-1616)
 1022 074a E881      		ld r30,Y
 1023 074c F981      		ldd r31,Y+1
 1024 074e C055      		subi r28,lo8(1616)
 1025 0750 D640      		sbci r29,hi8(1616)
 1026 0752 8181      		ldd r24,Z+1
 1027 0754 8832      		cpi r24,lo8(40)
 1028 0756 00F0      		brlo .+2
 1029 0758 00C0      		rjmp .L61
 1030 075a C25B      		subi r28,lo8(-1614)
 1031 075c D94F      		sbci r29,hi8(-1614)
 1032 075e E881      		ld r30,Y
 1033 0760 F981      		ldd r31,Y+1
 1034 0762 CE54      		subi r28,lo8(1614)
 1035 0764 D640      		sbci r29,hi8(1614)
 1036 0766 8181      		ldd r24,Z+1
 1037 0768 8832      		cpi r24,lo8(40)
 1038 076a 00F0      		brlo .+2
 1039 076c 00C0      		rjmp .L61
 1040 076e C45B      		subi r28,lo8(-1612)
 1041 0770 D94F      		sbci r29,hi8(-1612)
 1042 0772 E881      		ld r30,Y
 1043 0774 F981      		ldd r31,Y+1
 1044 0776 CC54      		subi r28,lo8(1612)
 1045 0778 D640      		sbci r29,hi8(1612)
 1046 077a 8281      		ldd r24,Z+2
 1047 077c 8832      		cpi r24,lo8(40)
 1048 077e 00F0      		brlo .+2
 1049 0780 00C0      		rjmp .L61
 1050 0782 8081      		ld r24,Z
 1051 0784 8832      		cpi r24,lo8(40)
 1052 0786 00F0      		brlo .+2
 1053 0788 00C0      		rjmp .L61
 1054 078a 00C0      		rjmp .L137
 1055               	.L62:
 1056               	.LM63:
 1057 078c 9F51      		subi r25,lo8(-(-31))
 1058 078e 9930      		cpi r25,lo8(9)
 1059 0790 00F0      		brlo .+2
 1060 0792 00C0      		rjmp .L61
 1061               	.LM64:
 1062 0794 C05B      		subi r28,lo8(-1616)
 1063 0796 D94F      		sbci r29,hi8(-1616)
 1064 0798 E881      		ld r30,Y
 1065 079a F981      		ldd r31,Y+1
 1066 079c C055      		subi r28,lo8(1616)
 1067 079e D640      		sbci r29,hi8(1616)
 1068 07a0 8181      		ldd r24,Z+1
 1069 07a2 8832      		cpi r24,lo8(40)
 1070 07a4 00F4      		brsh .L61
 1071 07a6 C25B      		subi r28,lo8(-1614)
 1072 07a8 D94F      		sbci r29,hi8(-1614)
 1073 07aa E881      		ld r30,Y
 1074 07ac F981      		ldd r31,Y+1
 1075 07ae CE54      		subi r28,lo8(1614)
 1076 07b0 D640      		sbci r29,hi8(1614)
 1077 07b2 8181      		ldd r24,Z+1
 1078 07b4 8832      		cpi r24,lo8(40)
 1079 07b6 00F4      		brsh .L61
 1080 07b8 C45B      		subi r28,lo8(-1612)
 1081 07ba D94F      		sbci r29,hi8(-1612)
 1082 07bc E881      		ld r30,Y
 1083 07be F981      		ldd r31,Y+1
 1084 07c0 CC54      		subi r28,lo8(1612)
 1085 07c2 D640      		sbci r29,hi8(1612)
 1086 07c4 8281      		ldd r24,Z+2
 1087 07c6 8832      		cpi r24,lo8(40)
 1088 07c8 00F4      		brsh .L61
 1089 07ca 8081      		ld r24,Z
 1090 07cc 8832      		cpi r24,lo8(40)
 1091 07ce 00F4      		brsh .L61
 1092 07d0 C05B      		subi r28,lo8(-1616)
 1093 07d2 D94F      		sbci r29,hi8(-1616)
 1094 07d4 E881      		ld r30,Y
 1095 07d6 F981      		ldd r31,Y+1
 1096 07d8 C055      		subi r28,lo8(1616)
 1097 07da D640      		sbci r29,hi8(1616)
 1098 07dc 8281      		ldd r24,Z+2
 1099 07de 8832      		cpi r24,lo8(40)
 1100 07e0 00F4      		brsh .L61
 1101 07e2 C25B      		subi r28,lo8(-1614)
 1102 07e4 D94F      		sbci r29,hi8(-1614)
 1103 07e6 A881      		ld r26,Y
 1104 07e8 B981      		ldd r27,Y+1
 1105 07ea CE54      		subi r28,lo8(1614)
 1106 07ec D640      		sbci r29,hi8(1614)
 1107 07ee 8C91      		ld r24,X
 1108 07f0 8832      		cpi r24,lo8(40)
 1109 07f2 00F4      		brsh .L61
 1110 07f4 FD01      		movw r30,r26
 1111 07f6 8281      		ldd r24,Z+2
 1112 07f8 8832      		cpi r24,lo8(40)
 1113 07fa 00F4      		brsh .L61
 1114 07fc C05B      		subi r28,lo8(-1616)
 1115 07fe D94F      		sbci r29,hi8(-1616)
 1116 0800 A881      		ld r26,Y
 1117 0802 B981      		ldd r27,Y+1
 1118 0804 C055      		subi r28,lo8(1616)
 1119 0806 D640      		sbci r29,hi8(1616)
 1120 0808 8C91      		ld r24,X
 1121 080a 8832      		cpi r24,lo8(40)
 1122 080c 00F4      		brsh .L61
 1123               	.LM65:
 1124 080e C45B      		subi r28,lo8(-1612)
 1125 0810 D94F      		sbci r29,hi8(-1612)
 1126 0812 E881      		ld r30,Y
 1127 0814 F981      		ldd r31,Y+1
 1128 0816 CC54      		subi r28,lo8(1612)
 1129 0818 D640      		sbci r29,hi8(1612)
 1130               	.L137:
 1131 081a 1182      		std Z+1,__zero_reg__
 1132               	.L61:
 1133               	.LM66:
 1134 081c CF5B      		subi r28,lo8(-1601)
 1135 081e D94F      		sbci r29,hi8(-1601)
 1136 0820 F881      		ld r31,Y
 1137 0822 C154      		subi r28,lo8(1601)
 1138 0824 D640      		sbci r29,hi8(1601)
 1139 0826 FF5F      		subi r31,lo8(-(1))
 1140 0828 CF5B      		subi r28,lo8(-1601)
 1141 082a D94F      		sbci r29,hi8(-1601)
 1142 082c F883      		st Y,r31
 1143 082e C154      		subi r28,lo8(1601)
 1144 0830 D640      		sbci r29,hi8(1601)
 1145               	.LVL42:
 1146 0832 C05B      		subi r28,lo8(-1616)
 1147 0834 D94F      		sbci r29,hi8(-1616)
 1148 0836 2881      		ld r18,Y
 1149 0838 3981      		ldd r19,Y+1
 1150 083a C055      		subi r28,lo8(1616)
 1151 083c D640      		sbci r29,hi8(1616)
 1152 083e 285D      		subi r18,lo8(-(40))
 1153 0840 3F4F      		sbci r19,hi8(-(40))
 1154 0842 C05B      		subi r28,lo8(-1616)
 1155 0844 D94F      		sbci r29,hi8(-1616)
 1156 0846 3983      		std Y+1,r19
 1157 0848 2883      		st Y,r18
 1158 084a C055      		subi r28,lo8(1616)
 1159 084c D640      		sbci r29,hi8(1616)
 1160 084e C25B      		subi r28,lo8(-1614)
 1161 0850 D94F      		sbci r29,hi8(-1614)
 1162 0852 8881      		ld r24,Y
 1163 0854 9981      		ldd r25,Y+1
 1164 0856 CE54      		subi r28,lo8(1614)
 1165 0858 D640      		sbci r29,hi8(1614)
 1166 085a 8896      		adiw r24,40
 1167 085c C25B      		subi r28,lo8(-1614)
 1168 085e D94F      		sbci r29,hi8(-1614)
 1169 0860 9983      		std Y+1,r25
 1170 0862 8883      		st Y,r24
 1171 0864 CE54      		subi r28,lo8(1614)
 1172 0866 D640      		sbci r29,hi8(1614)
 1173 0868 C45B      		subi r28,lo8(-1612)
 1174 086a D94F      		sbci r29,hi8(-1612)
 1175 086c A881      		ld r26,Y
 1176 086e B981      		ldd r27,Y+1
 1177 0870 CC54      		subi r28,lo8(1612)
 1178 0872 D640      		sbci r29,hi8(1612)
 1179 0874 9896      		adiw r26,40
 1180 0876 C45B      		subi r28,lo8(-1612)
 1181 0878 D94F      		sbci r29,hi8(-1612)
 1182 087a B983      		std Y+1,r27
 1183 087c A883      		st Y,r26
 1184 087e CC54      		subi r28,lo8(1612)
 1185 0880 D640      		sbci r29,hi8(1612)
 1186 0882 F732      		cpi r31,lo8(39)
 1187 0884 01F0      		breq .+2
 1188 0886 00C0      		rjmp .L29
 1189               	.LM67:
 1190 0888 C85B      		subi r28,lo8(-1608)
 1191 088a D94F      		sbci r29,hi8(-1608)
 1192 088c E881      		ld r30,Y
 1193 088e F981      		ldd r31,Y+1
 1194 0890 C854      		subi r28,lo8(1608)
 1195 0892 D640      		sbci r29,hi8(1608)
 1196 0894 8191      		ld r24,Z+
 1197 0896 C85B      		subi r28,lo8(-1608)
 1198 0898 D94F      		sbci r29,hi8(-1608)
 1199 089a F983      		std Y+1,r31
 1200 089c E883      		st Y,r30
 1201 089e C854      		subi r28,lo8(1608)
 1202 08a0 D640      		sbci r29,hi8(1608)
 1203 08a2 CA5B      		subi r28,lo8(-1606)
 1204 08a4 D94F      		sbci r29,hi8(-1606)
 1205 08a6 A881      		ld r26,Y
 1206 08a8 B981      		ldd r27,Y+1
 1207 08aa C654      		subi r28,lo8(1606)
 1208 08ac D640      		sbci r29,hi8(1606)
 1209 08ae 8D93      		st X+,r24
 1210 08b0 CA5B      		subi r28,lo8(-1606)
 1211 08b2 D94F      		sbci r29,hi8(-1606)
 1212 08b4 B983      		std Y+1,r27
 1213 08b6 A883      		st Y,r26
 1214 08b8 C654      		subi r28,lo8(1606)
 1215 08ba D640      		sbci r29,hi8(1606)
 1216               	.LM68:
 1217 08bc E1E0      		ldi r30,lo8(1)
 1218 08be F0E0      		ldi r31,hi8(1)
 1219 08c0 EC0F      		add r30,r28
 1220 08c2 FD1F      		adc r31,r29
 1221 08c4 CE5B      		subi r28,lo8(-1602)
 1222 08c6 D94F      		sbci r29,hi8(-1602)
 1223 08c8 2881      		ld r18,Y
 1224 08ca 3981      		ldd r19,Y+1
 1225 08cc C254      		subi r28,lo8(1602)
 1226 08ce D640      		sbci r29,hi8(1602)
 1227 08d0 E20F      		add r30,r18
 1228 08d2 F31F      		adc r31,r19
 1229 08d4 CC5B      		subi r28,lo8(-1604)
 1230 08d6 D94F      		sbci r29,hi8(-1604)
 1231 08d8 A881      		ld r26,Y
 1232 08da B981      		ldd r27,Y+1
 1233 08dc C454      		subi r28,lo8(1604)
 1234 08de D640      		sbci r29,hi8(1604)
 1235 08e0 8D91      		ld r24,X+
 1236 08e2 CC5B      		subi r28,lo8(-1604)
 1237 08e4 D94F      		sbci r29,hi8(-1604)
 1238 08e6 B983      		std Y+1,r27
 1239 08e8 A883      		st Y,r26
 1240 08ea C454      		subi r28,lo8(1604)
 1241 08ec D640      		sbci r29,hi8(1604)
 1242 08ee 8083      		st Z,r24
 1243 08f0 C65B      		subi r28,lo8(-1610)
 1244 08f2 D94F      		sbci r29,hi8(-1610)
 1245 08f4 E881      		ld r30,Y
 1246 08f6 F981      		ldd r31,Y+1
 1247 08f8 CA54      		subi r28,lo8(1610)
 1248 08fa D640      		sbci r29,hi8(1610)
 1249 08fc 3196      		adiw r30,1
 1250 08fe C65B      		subi r28,lo8(-1610)
 1251 0900 D94F      		sbci r29,hi8(-1610)
 1252 0902 F983      		std Y+1,r31
 1253 0904 E883      		st Y,r30
 1254 0906 CA54      		subi r28,lo8(1610)
 1255 0908 D640      		sbci r29,hi8(1610)
 1256 090a 2F5F      		subi r18,lo8(-(1))
 1257 090c 3F4F      		sbci r19,hi8(-(1))
 1258 090e CE5B      		subi r28,lo8(-1602)
 1259 0910 D94F      		sbci r29,hi8(-1602)
 1260 0912 3983      		std Y+1,r19
 1261 0914 2883      		st Y,r18
 1262 0916 C254      		subi r28,lo8(1602)
 1263 0918 D640      		sbci r29,hi8(1602)
 1264               	.LM69:
 1265 091a B697      		sbiw r30,38
 1266 091c 01F0      		breq .+2
 1267 091e 00C0      		rjmp .L78
 1268 0920 9E01      		movw r18,r28
 1269 0922 295D      		subi r18,lo8(-(39))
 1270 0924 3F4F      		sbci r19,hi8(-(39))
 1271 0926 DE01      		movw r26,r28
 1272 0928 1196      		adiw r26,1
 1273               	.L80:
 1274               	.LM70:
 1275 092a F901      		movw r30,r18
 1276 092c 8081      		ld r24,Z
 1277 092e 8183      		std Z+1,r24
 1278               	.LM71:
 1279 0930 FD01      		movw r30,r26
 1280 0932 8181      		ldd r24,Z+1
 1281 0934 8C93      		st X,r24
 1282 0936 285D      		subi r18,lo8(-(40))
 1283 0938 3F4F      		sbci r19,hi8(-(40))
 1284 093a 9896      		adiw r26,40
 1285               	.LM72:
 1286 093c CD59      		subi r28,lo8(-1635)
 1287 093e D94F      		sbci r29,hi8(-1635)
 1288 0940 8881      		ld r24,Y
 1289 0942 9981      		ldd r25,Y+1
 1290 0944 C356      		subi r28,lo8(1635)
 1291 0946 D640      		sbci r29,hi8(1635)
 1292 0948 2817      		cp r18,r24
 1293 094a 3907      		cpc r19,r25
 1294 094c 01F4      		brne .+2
 1295 094e 00C0      		rjmp .L130
 1296 0950 00C0      		rjmp .L80
 1297               	.LVL43:
 1298               	.L82:
 1299               	.LM73:
 1300 0952 8081      		ld r24,Z
 1301 0954 682F      		mov r22,r24
 1302               	.LVL44:
 1303 0956 70E0      		ldi r23,lo8(0)
 1304 0958 CD01      		movw r24,r26
 1305 095a 0296      		adiw r24,2
 1306 095c 8617      		cp r24,r22
 1307 095e 9707      		cpc r25,r23
 1308 0960 00F4      		brsh .L83
 1309 0962 C05A      		subi r28,lo8(-1632)
 1310 0964 D94F      		sbci r29,hi8(-1632)
 1311 0966 2883      		st Y,r18
 1312 0968 C056      		subi r28,lo8(1632)
 1313 096a D640      		sbci r29,hi8(1632)
 1314               	.LVL45:
 1315 096c C15A      		subi r28,lo8(-1631)
 1316 096e D94F      		sbci r29,hi8(-1631)
 1317 0970 1883      		st Y,r17
 1318 0972 CF55      		subi r28,lo8(1631)
 1319 0974 D640      		sbci r29,hi8(1631)
 1320               	.LVL46:
 1321 0976 DB01      		movw r26,r22
 1322               	.L83:
 1323 0978 2F5F      		subi r18,lo8(-(1))
 1324 097a 3F4F      		sbci r19,hi8(-(1))
 1325 097c B896      		adiw r30,40
 1326               	.LM74:
 1327 097e 2732      		cpi r18,39
 1328 0980 3105      		cpc r19,__zero_reg__
 1329 0982 01F4      		brne .L82
 1330 0984 4F5F      		subi r20,lo8(-(1))
 1331 0986 5F4F      		sbci r21,hi8(-(1))
 1332               	.LM75:
 1333 0988 4732      		cpi r20,39
 1334 098a 5105      		cpc r21,__zero_reg__
 1335 098c 01F0      		breq .+2
 1336 098e 00C0      		rjmp .L86
 1337               	.LM76:
 1338 0990 C15A      		subi r28,lo8(-1631)
 1339 0992 D94F      		sbci r29,hi8(-1631)
 1340 0994 B881      		ld r27,Y
 1341 0996 CF55      		subi r28,lo8(1631)
 1342 0998 D640      		sbci r29,hi8(1631)
 1343 099a AB2F      		mov r26,r27
 1344 099c B0E0      		ldi r27,lo8(0)
 1345 099e CE5A      		subi r28,lo8(-1618)
 1346 09a0 D94F      		sbci r29,hi8(-1618)
 1347 09a2 B983      		std Y+1,r27
 1348 09a4 A883      		st Y,r26
 1349 09a6 C255      		subi r28,lo8(1618)
 1350 09a8 D640      		sbci r29,hi8(1618)
 1351 09aa 61E0      		ldi r22,lo8(1)
 1352 09ac 462E      		mov r4,r22
 1353 09ae 512C      		mov r5,__zero_reg__
 1354               	.LVL47:
 1355 09b0 4C0E      		add r4,r28
 1356 09b2 5D1E      		adc r5,r29
 1357 09b4 4A0E      		add r4,r26
 1358 09b6 5B1E      		adc r5,r27
 1359 09b8 C45A      		subi r28,lo8(-1628)
 1360 09ba D94F      		sbci r29,hi8(-1628)
 1361 09bc 1982      		std Y+1,__zero_reg__
 1362 09be 1882      		st Y,__zero_reg__
 1363 09c0 CC55      		subi r28,lo8(1628)
 1364 09c2 D640      		sbci r29,hi8(1628)
 1365               	.LVL48:
 1366 09c4 0F2E      		mov __tmp_reg__,r31
 1367 09c6 F0E0      		ldi r31,lo8(0x0)
 1368 09c8 6F2E      		mov r6,r31
 1369 09ca F0E0      		ldi r31,hi8(0x0)
 1370 09cc 7F2E      		mov r7,r31
 1371 09ce F0E0      		ldi r31,hlo8(0x0)
 1372 09d0 8F2E      		mov r8,r31
 1373 09d2 F0E0      		ldi r31,hhi8(0x0)
 1374 09d4 9F2E      		mov r9,r31
 1375 09d6 F02D      		mov r31,__tmp_reg__
 1376               	.LVL49:
 1377 09d8 6401      		movw r12,r8
 1378 09da 5301      		movw r10,r6
 1379               	.LVL50:
 1380 09dc 51E0      		ldi r21,lo8(1)
 1381 09de 252E      		mov r2,r21
 1382 09e0 312C      		mov r3,__zero_reg__
 1383               	.LVL51:
 1384               	.L88:
 1385               	.LM77:
 1386 09e2 F201      		movw r30,r4
 1387 09e4 F080      		ld r15,Z
 1388 09e6 0F2D      		mov r16,r15
 1389 09e8 10E0      		ldi r17,lo8(0)
 1390               	.LVL52:
 1391 09ea B801      		movw r22,r16
 1392 09ec 8827      		clr r24
 1393 09ee 77FD      		sbrc r23,7
 1394 09f0 8095      		com r24
 1395 09f2 982F      		mov r25,r24
 1396 09f4 0E94 0000 		call __floatsisf
 1397               	.LVL53:
 1398 09f8 9B01      		movw r18,r22
 1399 09fa AC01      		movw r20,r24
 1400 09fc C601      		movw r24,r12
 1401 09fe B501      		movw r22,r10
 1402 0a00 0E94 0000 		call __addsf3
 1403 0a04 5B01      		movw r10,r22
 1404 0a06 6C01      		movw r12,r24
 1405               	.LM78:
 1406 0a08 209E      		mul r2,r16
 1407 0a0a B001      		movw r22,r0
 1408 0a0c 219E      		mul r2,r17
 1409 0a0e 700D      		add r23,r0
 1410 0a10 309E      		mul r3,r16
 1411 0a12 700D      		add r23,r0
 1412 0a14 1124      		clr r1
 1413 0a16 8827      		clr r24
 1414 0a18 77FD      		sbrc r23,7
 1415 0a1a 8095      		com r24
 1416 0a1c 982F      		mov r25,r24
 1417 0a1e 0E94 0000 		call __floatsisf
 1418 0a22 9B01      		movw r18,r22
 1419 0a24 AC01      		movw r20,r24
 1420 0a26 C401      		movw r24,r8
 1421 0a28 B301      		movw r22,r6
 1422 0a2a 0E94 0000 		call __addsf3
 1423 0a2e 3B01      		movw r6,r22
 1424 0a30 4C01      		movw r8,r24
 1425               	.LM79:
 1426 0a32 FAE0      		ldi r31,lo8(10)
 1427 0a34 FF15      		cp r31,r15
 1428 0a36 00F4      		brsh .L89
 1429               	.LM80:
 1430 0a38 C45A      		subi r28,lo8(-1628)
 1431 0a3a D94F      		sbci r29,hi8(-1628)
 1432 0a3c 2881      		ld r18,Y
 1433 0a3e 3981      		ldd r19,Y+1
 1434 0a40 CC55      		subi r28,lo8(1628)
 1435 0a42 D640      		sbci r29,hi8(1628)
 1436 0a44 2F5F      		subi r18,lo8(-(1))
 1437 0a46 3F4F      		sbci r19,hi8(-(1))
 1438 0a48 C45A      		subi r28,lo8(-1628)
 1439 0a4a D94F      		sbci r29,hi8(-1628)
 1440 0a4c 3983      		std Y+1,r19
 1441 0a4e 2883      		st Y,r18
 1442 0a50 CC55      		subi r28,lo8(1628)
 1443 0a52 D640      		sbci r29,hi8(1628)
 1444               	.LVL54:
 1445               	.L89:
 1446 0a54 88E2      		ldi r24,lo8(40)
 1447 0a56 90E0      		ldi r25,hi8(40)
 1448 0a58 480E      		add r4,r24
 1449 0a5a 591E      		adc r5,r25
 1450 0a5c 0894      		sec
 1451 0a5e 211C      		adc r2,__zero_reg__
 1452 0a60 311C      		adc r3,__zero_reg__
 1453               	.LM81:
 1454 0a62 99E2      		ldi r25,lo8(41)
 1455 0a64 2916      		cp r2,r25
 1456 0a66 3104      		cpc r3,__zero_reg__
 1457 0a68 01F0      		breq .+2
 1458 0a6a 00C0      		rjmp .L88
 1459               	.LM82:
 1460 0a6c A601      		movw r20,r12
 1461 0a6e 9501      		movw r18,r10
 1462 0a70 C401      		movw r24,r8
 1463 0a72 B301      		movw r22,r6
 1464 0a74 0E94 0000 		call __divsf3
 1465               	.LM83:
 1466 0a78 20E0      		ldi r18,lo8(0x41200000)
 1467 0a7a 30E0      		ldi r19,hi8(0x41200000)
 1468 0a7c 40E2      		ldi r20,hlo8(0x41200000)
 1469 0a7e 51E4      		ldi r21,hhi8(0x41200000)
 1470 0a80 0E94 0000 		call __mulsf3
 1471 0a84 0E94 0000 		call __fixsfsi
 1472 0a88 CF59      		subi r28,lo8(-1633)
 1473 0a8a D94F      		sbci r29,hi8(-1633)
 1474 0a8c 7983      		std Y+1,r23
 1475 0a8e 6883      		st Y,r22
 1476 0a90 C156      		subi r28,lo8(1633)
 1477 0a92 D640      		sbci r29,hi8(1633)
 1478               	.LM84:
 1479 0a94 C05A      		subi r28,lo8(-1632)
 1480 0a96 D94F      		sbci r29,hi8(-1632)
 1481 0a98 B881      		ld r27,Y
 1482 0a9a C056      		subi r28,lo8(1632)
 1483 0a9c D640      		sbci r29,hi8(1632)
 1484 0a9e AB2F      		mov r26,r27
 1485 0aa0 B0E0      		ldi r27,lo8(0)
 1486 0aa2 CC5A      		subi r28,lo8(-1620)
 1487 0aa4 D94F      		sbci r29,hi8(-1620)
 1488 0aa6 B983      		std Y+1,r27
 1489 0aa8 A883      		st Y,r26
 1490 0aaa C455      		subi r28,lo8(1620)
 1491 0aac D640      		sbci r29,hi8(1620)
 1492 0aae 88E2      		ldi r24,lo8(40)
 1493 0ab0 90E0      		ldi r25,hi8(40)
 1494 0ab2 A89F      		mul r26,r24
 1495 0ab4 6001      		movw r12,r0
 1496 0ab6 A99F      		mul r26,r25
 1497 0ab8 D00C      		add r13,r0
 1498 0aba B89F      		mul r27,r24
 1499 0abc D00C      		add r13,r0
 1500 0abe 1124      		clr r1
 1501 0ac0 E1E0      		ldi r30,lo8(1)
 1502 0ac2 F0E0      		ldi r31,hi8(1)
 1503 0ac4 EC0F      		add r30,r28
 1504 0ac6 FD1F      		adc r31,r29
 1505 0ac8 CE0E      		add r12,r30
 1506 0aca DF1E      		adc r13,r31
 1507 0acc 0F2E      		mov __tmp_reg__,r31
 1508 0ace F0E0      		ldi r31,lo8(0x0)
 1509 0ad0 4F2E      		mov r4,r31
 1510 0ad2 F0E0      		ldi r31,hi8(0x0)
 1511 0ad4 5F2E      		mov r5,r31
 1512 0ad6 F0E0      		ldi r31,hlo8(0x0)
 1513 0ad8 6F2E      		mov r6,r31
 1514 0ada F0E0      		ldi r31,hhi8(0x0)
 1515 0adc 7F2E      		mov r7,r31
 1516 0ade F02D      		mov r31,__tmp_reg__
 1517               	.LVL55:
 1518 0ae0 5301      		movw r10,r6
 1519 0ae2 4201      		movw r8,r4
 1520               	.LVL56:
 1521 0ae4 41E0      		ldi r20,lo8(1)
 1522 0ae6 242E      		mov r2,r20
 1523 0ae8 312C      		mov r3,__zero_reg__
 1524               	.LVL57:
 1525               	.L92:
 1526               	.LM85:
 1527 0aea D601      		movw r26,r12
 1528 0aec FC90      		ld r15,X
 1529 0aee 0F2D      		mov r16,r15
 1530 0af0 10E0      		ldi r17,lo8(0)
 1531 0af2 B801      		movw r22,r16
 1532 0af4 8827      		clr r24
 1533 0af6 77FD      		sbrc r23,7
 1534 0af8 8095      		com r24
 1535 0afa 982F      		mov r25,r24
 1536 0afc 0E94 0000 		call __floatsisf
 1537 0b00 9B01      		movw r18,r22
 1538 0b02 AC01      		movw r20,r24
 1539 0b04 C501      		movw r24,r10
 1540 0b06 B401      		movw r22,r8
 1541 0b08 0E94 0000 		call __addsf3
 1542 0b0c 4B01      		movw r8,r22
 1543 0b0e 5C01      		movw r10,r24
 1544               	.LM86:
 1545 0b10 209E      		mul r2,r16
 1546 0b12 B001      		movw r22,r0
 1547 0b14 219E      		mul r2,r17
 1548 0b16 700D      		add r23,r0
 1549 0b18 309E      		mul r3,r16
 1550 0b1a 700D      		add r23,r0
 1551 0b1c 1124      		clr r1
 1552 0b1e 8827      		clr r24
 1553 0b20 77FD      		sbrc r23,7
 1554 0b22 8095      		com r24
 1555 0b24 982F      		mov r25,r24
 1556 0b26 0E94 0000 		call __floatsisf
 1557 0b2a 9B01      		movw r18,r22
 1558 0b2c AC01      		movw r20,r24
 1559 0b2e C301      		movw r24,r6
 1560 0b30 B201      		movw r22,r4
 1561 0b32 0E94 0000 		call __addsf3
 1562 0b36 2B01      		movw r4,r22
 1563 0b38 3C01      		movw r6,r24
 1564               	.LM87:
 1565 0b3a BAE0      		ldi r27,lo8(10)
 1566 0b3c BF15      		cp r27,r15
 1567 0b3e 00F4      		brsh .L93
 1568               	.LM88:
 1569 0b40 C45A      		subi r28,lo8(-1628)
 1570 0b42 D94F      		sbci r29,hi8(-1628)
 1571 0b44 E881      		ld r30,Y
 1572 0b46 F981      		ldd r31,Y+1
 1573 0b48 CC55      		subi r28,lo8(1628)
 1574 0b4a D640      		sbci r29,hi8(1628)
 1575 0b4c 3196      		adiw r30,1
 1576 0b4e C45A      		subi r28,lo8(-1628)
 1577 0b50 D94F      		sbci r29,hi8(-1628)
 1578 0b52 F983      		std Y+1,r31
 1579 0b54 E883      		st Y,r30
 1580 0b56 CC55      		subi r28,lo8(1628)
 1581 0b58 D640      		sbci r29,hi8(1628)
 1582               	.LVL58:
 1583               	.L93:
 1584 0b5a 0894      		sec
 1585 0b5c C11C      		adc r12,__zero_reg__
 1586 0b5e D11C      		adc r13,__zero_reg__
 1587 0b60 0894      		sec
 1588 0b62 211C      		adc r2,__zero_reg__
 1589 0b64 311C      		adc r3,__zero_reg__
 1590               	.LM89:
 1591 0b66 F9E2      		ldi r31,lo8(41)
 1592 0b68 2F16      		cp r2,r31
 1593 0b6a 3104      		cpc r3,__zero_reg__
 1594 0b6c 01F0      		breq .+2
 1595 0b6e 00C0      		rjmp .L92
 1596               	.LM90:
 1597 0b70 A501      		movw r20,r10
 1598 0b72 9401      		movw r18,r8
 1599 0b74 C301      		movw r24,r6
 1600 0b76 B201      		movw r22,r4
 1601 0b78 0E94 0000 		call __divsf3
 1602               	.LM91:
 1603 0b7c 20E0      		ldi r18,lo8(0x41200000)
 1604 0b7e 30E0      		ldi r19,hi8(0x41200000)
 1605 0b80 40E2      		ldi r20,hlo8(0x41200000)
 1606 0b82 51E4      		ldi r21,hhi8(0x41200000)
 1607 0b84 0E94 0000 		call __mulsf3
 1608 0b88 0E94 0000 		call __fixsfsi
 1609 0b8c 8B01      		movw r16,r22
 1610 0b8e 9C01      		movw r18,r24
 1611               	.LM92:
 1612 0b90 C45A      		subi r28,lo8(-1628)
 1613 0b92 D94F      		sbci r29,hi8(-1628)
 1614 0b94 8881      		ld r24,Y
 1615 0b96 9981      		ldd r25,Y+1
 1616 0b98 CC55      		subi r28,lo8(1628)
 1617 0b9a D640      		sbci r29,hi8(1628)
 1618 0b9c 880F      		lsl r24
 1619 0b9e 991F      		rol r25
 1620 0ba0 880F      		lsl r24
 1621 0ba2 991F      		rol r25
 1622               	.LVL59:
 1623               	.LM93:
 1624 0ba4 CF59      		subi r28,lo8(-1633)
 1625 0ba6 D94F      		sbci r29,hi8(-1633)
 1626 0ba8 E881      		ld r30,Y
 1627 0baa F981      		ldd r31,Y+1
 1628 0bac C156      		subi r28,lo8(1633)
 1629 0bae D640      		sbci r29,hi8(1633)
 1630               	.LVL60:
 1631 0bb0 F695      		lsr r31
 1632 0bb2 E795      		ror r30
 1633               	.LM94:
 1634 0bb4 1695      		lsr r17
 1635 0bb6 0795      		ror r16
 1636               	.LVL61:
 1637               	.LM95:
 1638 0bb8 C65A      		subi r28,lo8(-1626)
 1639 0bba D94F      		sbci r29,hi8(-1626)
 1640 0bbc 2881      		ld r18,Y
 1641 0bbe 3981      		ldd r19,Y+1
 1642 0bc0 CA55      		subi r28,lo8(1626)
 1643 0bc2 D640      		sbci r29,hi8(1626)
 1644 0bc4 280F      		add r18,r24
 1645 0bc6 391F      		adc r19,r25
 1646 0bc8 3695      		lsr r19
 1647 0bca 2795      		ror r18
 1648 0bcc C65A      		subi r28,lo8(-1626)
 1649 0bce D94F      		sbci r29,hi8(-1626)
 1650 0bd0 3983      		std Y+1,r19
 1651 0bd2 2883      		st Y,r18
 1652 0bd4 CA55      		subi r28,lo8(1626)
 1653 0bd6 D640      		sbci r29,hi8(1626)
 1654               	.LVL62:
 1655               	.LM96:
 1656 0bd8 C85A      		subi r28,lo8(-1624)
 1657 0bda D94F      		sbci r29,hi8(-1624)
 1658 0bdc A881      		ld r26,Y
 1659 0bde B981      		ldd r27,Y+1
 1660 0be0 C855      		subi r28,lo8(1624)
 1661 0be2 D640      		sbci r29,hi8(1624)
 1662 0be4 AE0F      		add r26,r30
 1663 0be6 BF1F      		adc r27,r31
 1664 0be8 B695      		lsr r27
 1665 0bea A795      		ror r26
 1666 0bec C85A      		subi r28,lo8(-1624)
 1667 0bee D94F      		sbci r29,hi8(-1624)
 1668 0bf0 B983      		std Y+1,r27
 1669 0bf2 A883      		st Y,r26
 1670 0bf4 C855      		subi r28,lo8(1624)
 1671 0bf6 D640      		sbci r29,hi8(1624)
 1672               	.LVL63:
 1673               	.LM97:
 1674 0bf8 CA5A      		subi r28,lo8(-1622)
 1675 0bfa D94F      		sbci r29,hi8(-1622)
 1676 0bfc 2881      		ld r18,Y
 1677 0bfe 3981      		ldd r19,Y+1
 1678 0c00 C655      		subi r28,lo8(1622)
 1679 0c02 D640      		sbci r29,hi8(1622)
 1680 0c04 200F      		add r18,r16
 1681 0c06 311F      		adc r19,r17
 1682 0c08 3695      		lsr r19
 1683 0c0a 2795      		ror r18
 1684 0c0c CA5A      		subi r28,lo8(-1622)
 1685 0c0e D94F      		sbci r29,hi8(-1622)
 1686 0c10 3983      		std Y+1,r19
 1687 0c12 2883      		st Y,r18
 1688 0c14 C655      		subi r28,lo8(1622)
 1689 0c16 D640      		sbci r29,hi8(1622)
 1690               	.LVL64:
 1691               	.LM98:
 1692 0c18 C65A      		subi r28,lo8(-1626)
 1693 0c1a D94F      		sbci r29,hi8(-1626)
 1694 0c1c A881      		ld r26,Y
 1695 0c1e B981      		ldd r27,Y+1
 1696 0c20 CA55      		subi r28,lo8(1626)
 1697 0c22 D640      		sbci r29,hi8(1626)
 1698 0c24 8A0F      		add r24,r26
 1699 0c26 9B1F      		adc r25,r27
 1700 0c28 9695      		lsr r25
 1701 0c2a 8795      		ror r24
 1702               	.LVL65:
 1703 0c2c 6AE0      		ldi r22,lo8(10)
 1704 0c2e 70E0      		ldi r23,hi8(10)
 1705 0c30 0E94 0000 		call __udivmodhi4
 1706 0c34 6B01      		movw r12,r22
 1707 0c36 CB01      		movw r24,r22
 1708 0c38 43E0      		ldi r20,3
 1709 0c3a 880F      	1:	lsl r24
 1710 0c3c 991F      		rol r25
 1711 0c3e 4A95      		dec r20
 1712 0c40 01F4      		brne 1b
 1713 0c42 CC0C      		lsl r12
 1714 0c44 DD1C      		rol r13
 1715 0c46 C80E      		add r12,r24
 1716 0c48 D91E      		adc r13,r25
 1717               	.LM99:
 1718 0c4a C85A      		subi r28,lo8(-1624)
 1719 0c4c D94F      		sbci r29,hi8(-1624)
 1720 0c4e 2881      		ld r18,Y
 1721 0c50 3981      		ldd r19,Y+1
 1722 0c52 C855      		subi r28,lo8(1624)
 1723 0c54 D640      		sbci r29,hi8(1624)
 1724 0c56 E20F      		add r30,r18
 1725 0c58 F31F      		adc r31,r19
 1726 0c5a CF01      		movw r24,r30
 1727 0c5c 9695      		lsr r25
 1728 0c5e 8795      		ror r24
 1729 0c60 6AE0      		ldi r22,lo8(10)
 1730 0c62 70E0      		ldi r23,hi8(10)
 1731 0c64 0E94 0000 		call __udivmodhi4
 1732 0c68 7B01      		movw r14,r22
 1733 0c6a CB01      		movw r24,r22
 1734 0c6c B3E0      		ldi r27,3
 1735 0c6e 880F      	1:	lsl r24
 1736 0c70 991F      		rol r25
 1737 0c72 BA95      		dec r27
 1738 0c74 01F4      		brne 1b
 1739 0c76 EE0C      		lsl r14
 1740 0c78 FF1C      		rol r15
 1741 0c7a E80E      		add r14,r24
 1742 0c7c F91E      		adc r15,r25
 1743               	.LM100:
 1744 0c7e CA5A      		subi r28,lo8(-1622)
 1745 0c80 D94F      		sbci r29,hi8(-1622)
 1746 0c82 8881      		ld r24,Y
 1747 0c84 9981      		ldd r25,Y+1
 1748 0c86 C655      		subi r28,lo8(1622)
 1749 0c88 D640      		sbci r29,hi8(1622)
 1750 0c8a 080F      		add r16,r24
 1751 0c8c 191F      		adc r17,r25
 1752 0c8e C801      		movw r24,r16
 1753 0c90 9695      		lsr r25
 1754 0c92 8795      		ror r24
 1755 0c94 6AE0      		ldi r22,lo8(10)
 1756 0c96 70E0      		ldi r23,hi8(10)
 1757 0c98 0E94 0000 		call __udivmodhi4
 1758 0c9c 8B01      		movw r16,r22
 1759               	.LVL66:
 1760 0c9e CB01      		movw r24,r22
 1761 0ca0 E3E0      		ldi r30,3
 1762 0ca2 880F      	1:	lsl r24
 1763 0ca4 991F      		rol r25
 1764 0ca6 EA95      		dec r30
 1765 0ca8 01F4      		brne 1b
 1766               	.LVL67:
 1767 0caa 000F      		lsl r16
 1768 0cac 111F      		rol r17
 1769 0cae 080F      		add r16,r24
 1770 0cb0 191F      		adc r17,r25
 1771               	.LM101:
 1772 0cb2 60E0      		ldi r22,lo8(0)
 1773 0cb4 81E0      		ldi r24,lo8(1)
 1774 0cb6 0E94 0000 		call LCDGotoXY
 1775 0cba 63E0      		ldi r22,lo8(3)
 1776 0cbc 70E0      		ldi r23,hi8(3)
 1777 0cbe C601      		movw r24,r12
 1778 0cc0 0E94 0000 		call LCDWriteInt
 1779               	.LM102:
 1780 0cc4 60E0      		ldi r22,lo8(0)
 1781 0cc6 85E0      		ldi r24,lo8(5)
 1782 0cc8 0E94 0000 		call LCDGotoXY
 1783 0ccc 63E0      		ldi r22,lo8(3)
 1784 0cce 70E0      		ldi r23,hi8(3)
 1785 0cd0 CC5A      		subi r28,lo8(-1620)
 1786 0cd2 D94F      		sbci r29,hi8(-1620)
 1787 0cd4 8881      		ld r24,Y
 1788 0cd6 9981      		ldd r25,Y+1
 1789 0cd8 C455      		subi r28,lo8(1620)
 1790 0cda D640      		sbci r29,hi8(1620)
 1791 0cdc 0E94 0000 		call LCDWriteInt
 1792               	.LM103:
 1793 0ce0 60E0      		ldi r22,lo8(0)
 1794 0ce2 89E0      		ldi r24,lo8(9)
 1795 0ce4 0E94 0000 		call LCDGotoXY
 1796 0ce8 63E0      		ldi r22,lo8(3)
 1797 0cea 70E0      		ldi r23,hi8(3)
 1798 0cec CE5A      		subi r28,lo8(-1618)
 1799 0cee D94F      		sbci r29,hi8(-1618)
 1800 0cf0 8881      		ld r24,Y
 1801 0cf2 9981      		ldd r25,Y+1
 1802 0cf4 C255      		subi r28,lo8(1618)
 1803 0cf6 D640      		sbci r29,hi8(1618)
 1804 0cf8 0E94 0000 		call LCDWriteInt
 1805               	.LM104:
 1806 0cfc 60E0      		ldi r22,lo8(0)
 1807 0cfe 8DE0      		ldi r24,lo8(13)
 1808 0d00 0E94 0000 		call LCDGotoXY
 1809 0d04 CB5C      		subi r28,lo8(-821)
 1810 0d06 DC4F      		sbci r29,hi8(-821)
 1811 0d08 8881      		ld r24,Y
 1812 0d0a C553      		subi r28,lo8(821)
 1813 0d0c D340      		sbci r29,hi8(821)
 1814 0d0e 63E0      		ldi r22,lo8(3)
 1815 0d10 70E0      		ldi r23,hi8(3)
 1816 0d12 90E0      		ldi r25,lo8(0)
 1817 0d14 0E94 0000 		call LCDWriteInt
 1818               	.LM105:
 1819 0d18 61E0      		ldi r22,lo8(1)
 1820 0d1a 81E0      		ldi r24,lo8(1)
 1821 0d1c 0E94 0000 		call LCDGotoXY
 1822 0d20 63E0      		ldi r22,lo8(3)
 1823 0d22 70E0      		ldi r23,hi8(3)
 1824 0d24 C25A      		subi r28,lo8(-1630)
 1825 0d26 D94F      		sbci r29,hi8(-1630)
 1826 0d28 A881      		ld r26,Y
 1827 0d2a CE55      		subi r28,lo8(1630)
 1828 0d2c D640      		sbci r29,hi8(1630)
 1829 0d2e 8A2F      		mov r24,r26
 1830               	.LVL68:
 1831 0d30 90E0      		ldi r25,lo8(0)
 1832               	.LVL69:
 1833 0d32 0E94 0000 		call LCDWriteInt
 1834               	.LVL70:
 1835               	.LM106:
 1836 0d36 61E0      		ldi r22,lo8(1)
 1837 0d38 85E0      		ldi r24,lo8(5)
 1838 0d3a 0E94 0000 		call LCDGotoXY
 1839 0d3e 63E0      		ldi r22,lo8(3)
 1840 0d40 70E0      		ldi r23,hi8(3)
 1841 0d42 C701      		movw r24,r14
 1842 0d44 0E94 0000 		call LCDWriteInt
 1843               	.LM107:
 1844 0d48 61E0      		ldi r22,lo8(1)
 1845 0d4a 89E0      		ldi r24,lo8(9)
 1846 0d4c 0E94 0000 		call LCDGotoXY
 1847 0d50 63E0      		ldi r22,lo8(3)
 1848 0d52 70E0      		ldi r23,hi8(3)
 1849 0d54 C801      		movw r24,r16
 1850 0d56 0E94 0000 		call LCDWriteInt
 1851               	.LM108:
 1852 0d5a 61E0      		ldi r22,lo8(1)
 1853 0d5c 8DE0      		ldi r24,lo8(13)
 1854 0d5e 0E94 0000 		call LCDGotoXY
 1855 0d62 83B3      		in r24,51-0x20
 1856 0d64 63E0      		ldi r22,lo8(3)
 1857 0d66 70E0      		ldi r23,hi8(3)
 1858 0d68 90E0      		ldi r25,lo8(0)
 1859 0d6a 0E94 0000 		call LCDWriteInt
 1860               	.LM109:
 1861 0d6e C701      		movw r24,r14
 1862 0d70 0596      		adiw r24,5
 1863 0d72 0E94 0000 		call Timer_1A
 1864               	.LM110:
 1865 0d76 C801      		movw r24,r16
 1866 0d78 0596      		adiw r24,5
 1867 0d7a 0E94 0000 		call Timer_1B
 1868               	.LM111:
 1869 0d7e C601      		movw r24,r12
 1870 0d80 0596      		adiw r24,5
 1871 0d82 0E94 0000 		call Timer_0
 1872 0d86 00C0      		rjmp .L138
 1873               	.LVL71:
 1874               	.L123:
 1875               	.LM112:
 1876 0d88 00E0      		ldi r16,lo8(0)
 1877 0d8a 10E0      		ldi r17,hi8(0)
 1878               	.LVL72:
 1879               	.L23:
 1880 0d8c 61E0      		ldi r22,lo8(1)
 1881 0d8e 862E      		mov r8,r22
 1882 0d90 912C      		mov r9,__zero_reg__
 1883               	.LVL73:
 1884 0d92 8C0E      		add r8,r28
 1885 0d94 9D1E      		adc r9,r29
 1886 0d96 800E      		add r8,r16
 1887 0d98 911E      		adc r9,r17
 1888 0d9a 085D      		subi r16,lo8(-(40))
 1889 0d9c 1F4F      		sbci r17,hi8(-(40))
 1890 0d9e 51E0      		ldi r21,lo8(1)
 1891 0da0 A52E      		mov r10,r21
 1892 0da2 B12C      		mov r11,__zero_reg__
 1893 0da4 AC0E      		add r10,r28
 1894 0da6 BD1E      		adc r11,r29
 1895 0da8 A00E      		add r10,r16
 1896 0daa B11E      		adc r11,r17
 1897 0dac 085D      		subi r16,lo8(-(40))
 1898 0dae 1F4F      		sbci r17,hi8(-(40))
 1899 0db0 41E0      		ldi r20,lo8(1)
 1900 0db2 C42E      		mov r12,r20
 1901 0db4 D12C      		mov r13,__zero_reg__
 1902 0db6 CC0E      		add r12,r28
 1903 0db8 DD1E      		adc r13,r29
 1904 0dba C00E      		add r12,r16
 1905 0dbc D11E      		adc r13,r17
 1906 0dbe 085D      		subi r16,lo8(-(40))
 1907 0dc0 1F4F      		sbci r17,hi8(-(40))
 1908 0dc2 31E0      		ldi r19,lo8(1)
 1909 0dc4 E32E      		mov r14,r19
 1910 0dc6 F12C      		mov r15,__zero_reg__
 1911 0dc8 EC0E      		add r14,r28
 1912 0dca FD1E      		adc r15,r29
 1913 0dcc E00E      		add r14,r16
 1914 0dce F11E      		adc r15,r17
 1915 0dd0 0857      		subi r16,lo8(-(-120))
 1916 0dd2 1040      		sbci r17,hi8(-(-120))
 1917 0dd4 7724      		clr r7
 1918               	.LVL74:
 1919 0dd6 00C0      		rjmp .L21
 1920               	.L125:
 1921 0dd8 CC24      		clr r12
 1922 0dda DD24      		clr r13
 1923               	.LVL75:
 1924               	.L27:
 1925 0ddc 21E0      		ldi r18,lo8(1)
 1926 0dde 622E      		mov r6,r18
 1927 0de0 712C      		mov r7,__zero_reg__
 1928 0de2 6C0E      		add r6,r28
 1929 0de4 7D1E      		adc r7,r29
 1930 0de6 6C0C      		add r6,r12
 1931 0de8 7D1C      		adc r7,r13
 1932 0dea E8E2      		ldi r30,lo8(40)
 1933 0dec F0E0      		ldi r31,hi8(40)
 1934 0dee CE0E      		add r12,r30
 1935 0df0 DF1E      		adc r13,r31
 1936 0df2 91E0      		ldi r25,lo8(1)
 1937 0df4 A92E      		mov r10,r25
 1938 0df6 B12C      		mov r11,__zero_reg__
 1939 0df8 AC0E      		add r10,r28
 1940 0dfa BD1E      		adc r11,r29
 1941 0dfc AC0C      		add r10,r12
 1942 0dfe BD1C      		adc r11,r13
 1943 0e00 CE0E      		add r12,r30
 1944 0e02 DF1E      		adc r13,r31
 1945 0e04 81E0      		ldi r24,lo8(1)
 1946 0e06 882E      		mov r8,r24
 1947 0e08 912C      		mov r9,__zero_reg__
 1948 0e0a 8C0E      		add r8,r28
 1949 0e0c 9D1E      		adc r9,r29
 1950 0e0e 8C0C      		add r8,r12
 1951 0e10 9D1C      		adc r9,r13
 1952 0e12 20EB      		ldi r18,lo8(-80)
 1953 0e14 3FEF      		ldi r19,hi8(-80)
 1954 0e16 C20E      		add r12,r18
 1955 0e18 D31E      		adc r13,r19
 1956 0e1a 5524      		clr r5
 1957 0e1c 5394      		inc r5
 1958               	.LVL76:
 1959 0e1e 00C0      		rjmp .L25
 1960               	.LVL77:
 1961               	.L121:
 1962 0e20 EE24      		clr r14
 1963 0e22 FF24      		clr r15
 1964               	.LVL78:
 1965               	.L19:
 1966 0e24 01E0      		ldi r16,lo8(1)
 1967 0e26 10E0      		ldi r17,hi8(1)
 1968 0e28 0C0F      		add r16,r28
 1969 0e2a 1D1F      		adc r17,r29
 1970 0e2c 0E0D      		add r16,r14
 1971 0e2e 1F1D      		adc r17,r15
 1972 0e30 DD24      		clr r13
 1973               	.LVL79:
 1974 0e32 00C0      		rjmp .L13
 1975               	.LVL80:
 1976               	.L127:
 1977 0e34 CE01      		movw r24,r28
 1978 0e36 8E50      		subi r24,lo8(-(1522))
 1979 0e38 9A4F      		sbci r25,hi8(-(1522))
 1980 0e3a C85B      		subi r28,lo8(-1608)
 1981 0e3c D94F      		sbci r29,hi8(-1608)
 1982 0e3e 9983      		std Y+1,r25
 1983 0e40 8883      		st Y,r24
 1984 0e42 C854      		subi r28,lo8(1608)
 1985 0e44 D640      		sbci r29,hi8(1608)
 1986 0e46 DE01      		movw r26,r28
 1987 0e48 A65E      		subi r26,lo8(-(1562))
 1988 0e4a B94F      		sbci r27,hi8(-(1562))
 1989 0e4c CA5B      		subi r28,lo8(-1606)
 1990 0e4e D94F      		sbci r29,hi8(-1606)
 1991 0e50 B983      		std Y+1,r27
 1992 0e52 A883      		st Y,r26
 1993 0e54 C654      		subi r28,lo8(1606)
 1994 0e56 D640      		sbci r29,hi8(1606)
 1995 0e58 FE01      		movw r30,r28
 1996 0e5a BA96      		adiw r30,42
 1997 0e5c CC5B      		subi r28,lo8(-1604)
 1998 0e5e D94F      		sbci r29,hi8(-1604)
 1999 0e60 F983      		std Y+1,r31
 2000 0e62 E883      		st Y,r30
 2001 0e64 C454      		subi r28,lo8(1604)
 2002 0e66 D640      		sbci r29,hi8(1604)
 2003 0e68 C25A      		subi r28,lo8(-1630)
 2004 0e6a D94F      		sbci r29,hi8(-1630)
 2005 0e6c 1882      		st Y,__zero_reg__
 2006 0e6e CE55      		subi r28,lo8(1630)
 2007 0e70 D640      		sbci r29,hi8(1630)
 2008               	.LVL81:
 2009 0e72 C65B      		subi r28,lo8(-1610)
 2010 0e74 D94F      		sbci r29,hi8(-1610)
 2011 0e76 1982      		std Y+1,__zero_reg__
 2012 0e78 1882      		st Y,__zero_reg__
 2013 0e7a CA54      		subi r28,lo8(1610)
 2014 0e7c D640      		sbci r29,hi8(1610)
 2015 0e7e 21E0      		ldi r18,lo8(1)
 2016 0e80 30E0      		ldi r19,hi8(1)
 2017 0e82 CE5B      		subi r28,lo8(-1602)
 2018 0e84 D94F      		sbci r29,hi8(-1602)
 2019 0e86 3983      		std Y+1,r19
 2020 0e88 2883      		st Y,r18
 2021 0e8a C254      		subi r28,lo8(1602)
 2022 0e8c D640      		sbci r29,hi8(1602)
 2023               	.LVL82:
 2024               	.L78:
 2025 0e8e C65B      		subi r28,lo8(-1610)
 2026 0e90 D94F      		sbci r29,hi8(-1610)
 2027 0e92 8881      		ld r24,Y
 2028 0e94 9981      		ldd r25,Y+1
 2029 0e96 CA54      		subi r28,lo8(1610)
 2030 0e98 D640      		sbci r29,hi8(1610)
 2031 0e9a 805B      		subi r24,lo8(-(80))
 2032 0e9c 9F4F      		sbci r25,hi8(-(80))
 2033 0e9e A1E0      		ldi r26,lo8(1)
 2034 0ea0 B0E0      		ldi r27,hi8(1)
 2035 0ea2 AC0F      		add r26,r28
 2036 0ea4 BD1F      		adc r27,r29
 2037 0ea6 A80F      		add r26,r24
 2038 0ea8 B91F      		adc r27,r25
 2039 0eaa C05B      		subi r28,lo8(-1616)
 2040 0eac D94F      		sbci r29,hi8(-1616)
 2041 0eae B983      		std Y+1,r27
 2042 0eb0 A883      		st Y,r26
 2043 0eb2 C055      		subi r28,lo8(1616)
 2044 0eb4 D640      		sbci r29,hi8(1616)
 2045 0eb6 8055      		subi r24,lo8(-(-80))
 2046 0eb8 9040      		sbci r25,hi8(-(-80))
 2047 0eba E1E0      		ldi r30,lo8(1)
 2048 0ebc F0E0      		ldi r31,hi8(1)
 2049 0ebe EC0F      		add r30,r28
 2050 0ec0 FD1F      		adc r31,r29
 2051 0ec2 E80F      		add r30,r24
 2052 0ec4 F91F      		adc r31,r25
 2053 0ec6 C25B      		subi r28,lo8(-1614)
 2054 0ec8 D94F      		sbci r29,hi8(-1614)
 2055 0eca F983      		std Y+1,r31
 2056 0ecc E883      		st Y,r30
 2057 0ece CE54      		subi r28,lo8(1614)
 2058 0ed0 D640      		sbci r29,hi8(1614)
 2059 0ed2 8896      		adiw r24,40
 2060 0ed4 21E0      		ldi r18,lo8(1)
 2061 0ed6 30E0      		ldi r19,hi8(1)
 2062 0ed8 2C0F      		add r18,r28
 2063 0eda 3D1F      		adc r19,r29
 2064 0edc 280F      		add r18,r24
 2065 0ede 391F      		adc r19,r25
 2066 0ee0 C45B      		subi r28,lo8(-1612)
 2067 0ee2 D94F      		sbci r29,hi8(-1612)
 2068 0ee4 3983      		std Y+1,r19
 2069 0ee6 2883      		st Y,r18
 2070 0ee8 CC54      		subi r28,lo8(1612)
 2071 0eea D640      		sbci r29,hi8(1612)
 2072 0eec 8897      		sbiw r24,40
 2073 0eee C65B      		subi r28,lo8(-1610)
 2074 0ef0 D94F      		sbci r29,hi8(-1610)
 2075 0ef2 9983      		std Y+1,r25
 2076 0ef4 8883      		st Y,r24
 2077 0ef6 CA54      		subi r28,lo8(1610)
 2078 0ef8 D640      		sbci r29,hi8(1610)
 2079 0efa 31E0      		ldi r19,lo8(1)
 2080 0efc CF5B      		subi r28,lo8(-1601)
 2081 0efe D94F      		sbci r29,hi8(-1601)
 2082 0f00 3883      		st Y,r19
 2083 0f02 C154      		subi r28,lo8(1601)
 2084 0f04 D640      		sbci r29,hi8(1601)
 2085               	.LVL83:
 2086 0f06 00C0      		rjmp .L29
 2087               	.LVL84:
 2088               	.L130:
 2089 0f08 A0E0      		ldi r26,lo8(0)
 2090 0f0a B0E0      		ldi r27,hi8(0)
 2091               	.LVL85:
 2092 0f0c 40E0      		ldi r20,lo8(0)
 2093 0f0e 50E0      		ldi r21,hi8(0)
 2094               	.LVL86:
 2095               	.L86:
 2096 0f10 142F      		mov r17,r20
 2097 0f12 E1E0      		ldi r30,lo8(1)
 2098 0f14 F0E0      		ldi r31,hi8(1)
 2099 0f16 EC0F      		add r30,r28
 2100 0f18 FD1F      		adc r31,r29
 2101 0f1a E40F      		add r30,r20
 2102 0f1c F51F      		adc r31,r21
 2103 0f1e 20E0      		ldi r18,lo8(0)
 2104 0f20 30E0      		ldi r19,hi8(0)
 2105 0f22 00C0      		rjmp .L82
 2106               	/* epilogue: frame size=1636 */
 2107               	/* epilogue: noreturn */
 2108               	/* epilogue end (size=0) */
 2109               	/* function main size 1948 (1921) */
 2110               	.LFE9:
 2112               		.comm URBuff,6,1
 2113               		.comm UQFront,1,1
 2114               		.comm UQEnd,1,1
 2139               	.Letext0:
DEFINED SYMBOLS
                            *ABS*:00000000 main.c
C:\Users\USER\AppData\Local\Temp/ccnP5akZ.s:2      *ABS*:0000003f __SREG__
C:\Users\USER\AppData\Local\Temp/ccnP5akZ.s:3      *ABS*:0000003e __SP_H__
C:\Users\USER\AppData\Local\Temp/ccnP5akZ.s:4      *ABS*:0000003d __SP_L__
C:\Users\USER\AppData\Local\Temp/ccnP5akZ.s:5      *ABS*:00000000 __tmp_reg__
C:\Users\USER\AppData\Local\Temp/ccnP5akZ.s:6      *ABS*:00000001 __zero_reg__
C:\Users\USER\AppData\Local\Temp/ccnP5akZ.s:19     .text:00000000 main
                            *COM*:00000006 URBuff
                            *COM*:00000001 UQFront
                            *COM*:00000001 UQEnd

UNDEFINED SYMBOLS
__do_copy_data
__do_clear_bss
Timer_init
LCDInit
__floatsisf
__mulsf3
__fixunssfsi
__udivmodqi4
__addsf3
__floatunsisf
sqrt
__divsf3
__gesf2
__ltsf2
__gtsf2
__fixsfsi
__udivmodhi4
LCDGotoXY
LCDWriteInt
Timer_1A
Timer_1B
Timer_0
