
main.elf:     file format elf32-avr

Sections:
Idx Name          Size      VMA       LMA       File off  Algn
  0 .text         00002466  00000000  00000000  00000074  2**1
                  CONTENTS, ALLOC, LOAD, READONLY, CODE
  1 .data         00000140  00800060  00002466  000024da  2**0
                  CONTENTS, ALLOC, LOAD, DATA
  2 .bss          00000024  008001a0  000025a6  0000261a  2**0
                  ALLOC
  3 .stab         00000378  00000000  00000000  0000261c  2**2
                  CONTENTS, READONLY, DEBUGGING
  4 .stabstr      0000005f  00000000  00000000  00002994  2**0
                  CONTENTS, READONLY, DEBUGGING
  5 .debug_aranges 000000c0  00000000  00000000  000029f3  2**0
                  CONTENTS, READONLY, DEBUGGING
  6 .debug_pubnames 00000276  00000000  00000000  00002ab3  2**0
                  CONTENTS, READONLY, DEBUGGING
  7 .debug_info   000011e6  00000000  00000000  00002d29  2**0
                  CONTENTS, READONLY, DEBUGGING
  8 .debug_abbrev 000006da  00000000  00000000  00003f0f  2**0
                  CONTENTS, READONLY, DEBUGGING
  9 .debug_line   00000ef6  00000000  00000000  000045e9  2**0
                  CONTENTS, READONLY, DEBUGGING
 10 .debug_frame  00000200  00000000  00000000  000054e0  2**2
                  CONTENTS, READONLY, DEBUGGING
 11 .debug_str    0000033f  00000000  00000000  000056e0  2**0
                  CONTENTS, READONLY, DEBUGGING
 12 .debug_loc    0000090e  00000000  00000000  00005a1f  2**0
                  CONTENTS, READONLY, DEBUGGING
Disassembly of section .text:

00000000 <__vectors>:
       0:	0c 94 5f 00 	jmp	0xbe	; 0xbe <__ctors_end>
       4:	0c 94 7c 00 	jmp	0xf8	; 0xf8 <__bad_interrupt>
       8:	0c 94 7c 00 	jmp	0xf8	; 0xf8 <__bad_interrupt>
       c:	0c 94 7c 00 	jmp	0xf8	; 0xf8 <__bad_interrupt>
      10:	0c 94 7c 00 	jmp	0xf8	; 0xf8 <__bad_interrupt>
      14:	0c 94 7c 00 	jmp	0xf8	; 0xf8 <__bad_interrupt>
      18:	0c 94 7c 00 	jmp	0xf8	; 0xf8 <__bad_interrupt>
      1c:	0c 94 7c 00 	jmp	0xf8	; 0xf8 <__bad_interrupt>
      20:	0c 94 7c 00 	jmp	0xf8	; 0xf8 <__bad_interrupt>
      24:	0c 94 65 08 	jmp	0x10ca	; 0x10ca <__vector_9>
      28:	0c 94 7e 08 	jmp	0x10fc	; 0x10fc <__vector_10>
      2c:	0c 94 7c 00 	jmp	0xf8	; 0xf8 <__bad_interrupt>
      30:	0c 94 7c 00 	jmp	0xf8	; 0xf8 <__bad_interrupt>
      34:	0c 94 7c 00 	jmp	0xf8	; 0xf8 <__bad_interrupt>
      38:	0c 94 7c 00 	jmp	0xf8	; 0xf8 <__bad_interrupt>
      3c:	0c 94 7c 00 	jmp	0xf8	; 0xf8 <__bad_interrupt>
      40:	0c 94 7c 00 	jmp	0xf8	; 0xf8 <__bad_interrupt>
      44:	0c 94 7c 00 	jmp	0xf8	; 0xf8 <__bad_interrupt>
      48:	0c 94 7c 00 	jmp	0xf8	; 0xf8 <__bad_interrupt>
      4c:	0c 94 7c 00 	jmp	0xf8	; 0xf8 <__bad_interrupt>
      50:	0c 94 7c 00 	jmp	0xf8	; 0xf8 <__bad_interrupt>
      54:	03 6e       	ori	r16, 0xE3	; 227
      56:	db 36       	cpi	r29, 0x6B	; 107
      58:	3d 9a       	sbi	0x07, 5	; 7
      5a:	99 99       	sbic	0x13, 1	; 19
      5c:	99 3d       	cpi	r25, 0xD9	; 217
      5e:	ab aa       	std	Y+51, r10	; 0x33
      60:	aa 2a       	or	r10, r26
      62:	3e 00       	.word	0x003e	; ????
      64:	00 00       	nop
      66:	80 3f       	cpi	r24, 0xF0	; 240
      68:	08 4a       	sbci	r16, 0xA8	; 168
      6a:	d7 3b       	cpi	r29, 0xB7	; 183
      6c:	3b ce       	rjmp	.-906    	; 0xfffffce4 <__eeprom_end+0xff7efce4>
      6e:	01 6e       	ori	r16, 0xE1	; 225
      70:	84 bc       	out	0x24, r8	; 36
      72:	bf fd       	.word	0xfdbf	; ????
      74:	c1 2f       	mov	r28, r17
      76:	3d 6c       	ori	r19, 0xCD	; 205
      78:	74 31       	cpi	r23, 0x14	; 20
      7a:	9a bd       	out	0x2a, r25	; 42
      7c:	56 83       	std	Z+6, r21	; 0x06
      7e:	3d da       	rcall	.-2950   	; 0xfffff4fa <__eeprom_end+0xff7ef4fa>
      80:	3d 00       	.word	0x003d	; ????
      82:	c7 7f       	andi	r28, 0xF7	; 247
      84:	11 be       	out	0x31, r1	; 49
      86:	d9 e4       	ldi	r29, 0x49	; 73
      88:	bb 4c       	sbci	r27, 0xCB	; 203
      8a:	3e 91       	ld	r19, -X
      8c:	6b aa       	std	Y+51, r6	; 0x33
      8e:	aa be       	out	0x3a, r10	; 58
      90:	00 00       	nop
      92:	00 80       	ld	r0, Z
      94:	3f 07       	cpc	r19, r31
      96:	2c 7a       	andi	r18, 0xAC	; 172
      98:	a5 ba       	out	0x15, r10	; 21
      9a:	6c c5       	rjmp	.+2776   	; 0xb74 <__stack+0x315>
      9c:	90 da       	rcall	.-2784   	; 0xfffff5be <__eeprom_end+0xff7ef5be>
      9e:	3b 93       	.word	0x933b	; ????
      a0:	65 fc       	sbrc	r6, 5
      a2:	8b bc       	out	0x2b, r8	; 43
      a4:	53 f8       	bld	r5, 3
      a6:	10 fd       	sbrc	r17, 0
      a8:	3c 56       	subi	r19, 0x6C	; 108
      aa:	92 83       	std	Z+2, r25	; 0x02
      ac:	4d bd       	out	0x2d, r20	; 45
      ae:	87 9d       	mul	r24, r7
      b0:	3a b6       	in	r3, 0x3a	; 58
      b2:	3d cb       	rjmp	.-2438   	; 0xfffff72e <__eeprom_end+0xff7ef72e>
      b4:	c9 bf       	out	0x39, r28	; 57
      b6:	5b be       	out	0x3b, r5	; 59
      b8:	73 da       	rcall	.-2842   	; 0xfffff5a0 <__eeprom_end+0xff7ef5a0>
      ba:	0f c9       	rjmp	.-3554   	; 0xfffff2da <__eeprom_end+0xff7ef2da>
      bc:	3f 00       	.word	0x003f	; ????

000000be <__ctors_end>:
      be:	11 24       	eor	r1, r1
      c0:	1f be       	out	0x3f, r1	; 63
      c2:	cf e5       	ldi	r28, 0x5F	; 95
      c4:	d8 e0       	ldi	r29, 0x08	; 8
      c6:	de bf       	out	0x3e, r29	; 62
      c8:	cd bf       	out	0x3d, r28	; 61

000000ca <__do_copy_data>:
      ca:	11 e0       	ldi	r17, 0x01	; 1
      cc:	a0 e6       	ldi	r26, 0x60	; 96
      ce:	b0 e0       	ldi	r27, 0x00	; 0
      d0:	e6 e6       	ldi	r30, 0x66	; 102
      d2:	f4 e2       	ldi	r31, 0x24	; 36
      d4:	02 c0       	rjmp	.+4      	; 0xda <.do_copy_data_start>

000000d6 <.do_copy_data_loop>:
      d6:	05 90       	lpm	r0, Z+
      d8:	0d 92       	st	X+, r0

000000da <.do_copy_data_start>:
      da:	a0 3a       	cpi	r26, 0xA0	; 160
      dc:	b1 07       	cpc	r27, r17
      de:	d9 f7       	brne	.-10     	; 0xd6 <.do_copy_data_loop>

000000e0 <__do_clear_bss>:
      e0:	11 e0       	ldi	r17, 0x01	; 1
      e2:	a0 ea       	ldi	r26, 0xA0	; 160
      e4:	b1 e0       	ldi	r27, 0x01	; 1
      e6:	01 c0       	rjmp	.+2      	; 0xea <.do_clear_bss_start>

000000e8 <.do_clear_bss_loop>:
      e8:	1d 92       	st	X+, r1

000000ea <.do_clear_bss_start>:
      ea:	a4 3c       	cpi	r26, 0xC4	; 196
      ec:	b1 07       	cpc	r27, r17
      ee:	e1 f7       	brne	.-8      	; 0xe8 <.do_clear_bss_loop>
      f0:	0e 94 7e 00 	call	0xfc	; 0xfc <main>
      f4:	0c 94 32 12 	jmp	0x2464	; 0x2464 <_exit>

000000f8 <__bad_interrupt>:
      f8:	0c 94 00 00 	jmp	0	; 0x0 <__heap_end>

000000fc <main>:
      fc:	2f 92       	push	r2
      fe:	3f 92       	push	r3
     100:	4f 92       	push	r4
     102:	5f 92       	push	r5
     104:	6f 92       	push	r6
     106:	7f 92       	push	r7
     108:	8f 92       	push	r8
     10a:	9f 92       	push	r9
     10c:	af 92       	push	r10
     10e:	bf 92       	push	r11
     110:	cf 92       	push	r12
     112:	df 92       	push	r13
     114:	ef 92       	push	r14
     116:	ff 92       	push	r15
     118:	0f 93       	push	r16
     11a:	1f 93       	push	r17
     11c:	cf 93       	push	r28
     11e:	df 93       	push	r29
     120:	cd b7       	in	r28, 0x3d	; 61
     122:	de b7       	in	r29, 0x3e	; 62
     124:	c4 56       	subi	r28, 0x64	; 100
     126:	d6 40       	sbci	r29, 0x06	; 6
     128:	0f b6       	in	r0, 0x3f	; 63
     12a:	f8 94       	cli
     12c:	de bf       	out	0x3e, r29	; 62
     12e:	0f be       	out	0x3f, r0	; 63
     130:	cd bf       	out	0x3d, r28	; 61
     132:	0e 94 10 08 	call	0x1020	; 0x1020 <Timer_init>
     136:	82 e0       	ldi	r24, 0x02	; 2
     138:	0e 94 6e 09 	call	0x12dc	; 0x12dc <LCDInit>
     13c:	81 b3       	in	r24, 0x11	; 17
     13e:	8f 67       	ori	r24, 0x7F	; 127
     140:	81 bb       	out	0x11, r24	; 17
     142:	87 b3       	in	r24, 0x17	; 23
     144:	8f ef       	ldi	r24, 0xFF	; 255
     146:	87 bb       	out	0x17, r24	; 23
     148:	84 b3       	in	r24, 0x14	; 20
     14a:	8c 6f       	ori	r24, 0xFC	; 252
     14c:	84 bb       	out	0x14, r24	; 20
     14e:	c8 5a       	subi	r28, 0xA8	; 168
     150:	d9 4f       	sbci	r29, 0xF9	; 249
     152:	19 82       	std	Y+1, r1	; 0x01
     154:	18 82       	st	Y, r1
     156:	c8 55       	subi	r28, 0x58	; 88
     158:	d6 40       	sbci	r29, 0x06	; 6
     15a:	c6 5a       	subi	r28, 0xA6	; 166
     15c:	d9 4f       	sbci	r29, 0xF9	; 249
     15e:	19 82       	std	Y+1, r1	; 0x01
     160:	18 82       	st	Y, r1
     162:	ca 55       	subi	r28, 0x5A	; 90
     164:	d6 40       	sbci	r29, 0x06	; 6
     166:	ca 5a       	subi	r28, 0xAA	; 170
     168:	d9 4f       	sbci	r29, 0xF9	; 249
     16a:	19 82       	std	Y+1, r1	; 0x01
     16c:	18 82       	st	Y, r1
     16e:	c6 55       	subi	r28, 0x56	; 86
     170:	d6 40       	sbci	r29, 0x06	; 6
     172:	9e 01       	movw	r18, r28
     174:	29 59       	subi	r18, 0x99	; 153
     176:	39 4f       	sbci	r19, 0xF9	; 249
     178:	cd 59       	subi	r28, 0x9D	; 157
     17a:	d9 4f       	sbci	r29, 0xF9	; 249
     17c:	39 83       	std	Y+1, r19	; 0x01
     17e:	28 83       	st	Y, r18
     180:	c3 56       	subi	r28, 0x63	; 99
     182:	d6 40       	sbci	r29, 0x06	; 6
     184:	83 b3       	in	r24, 0x13	; 19
     186:	81 30       	cpi	r24, 0x01	; 1
     188:	e9 f7       	brne	.-6      	; 0x184 <main+0x88>
     18a:	83 b3       	in	r24, 0x13	; 19
     18c:	81 30       	cpi	r24, 0x01	; 1
     18e:	e9 f3       	breq	.-6      	; 0x18a <main+0x8e>
     190:	a0 e0       	ldi	r26, 0x00	; 0
     192:	83 b3       	in	r24, 0x13	; 19
     194:	88 23       	and	r24, r24
     196:	e9 f3       	breq	.-6      	; 0x192 <main+0x96>
     198:	50 e0       	ldi	r21, 0x00	; 0
     19a:	6a 2f       	mov	r22, r26
     19c:	70 e0       	ldi	r23, 0x00	; 0
     19e:	87 9b       	sbis	0x10, 7	; 16
     1a0:	16 c0       	rjmp	.+44     	; 0x1ce <main+0xd2>
     1a2:	49 b3       	in	r20, 0x19	; 25
     1a4:	25 2f       	mov	r18, r21
     1a6:	30 e0       	ldi	r19, 0x00	; 0
     1a8:	88 e2       	ldi	r24, 0x28	; 40
     1aa:	90 e0       	ldi	r25, 0x00	; 0
     1ac:	28 9f       	mul	r18, r24
     1ae:	f0 01       	movw	r30, r0
     1b0:	29 9f       	mul	r18, r25
     1b2:	f0 0d       	add	r31, r0
     1b4:	38 9f       	mul	r19, r24
     1b6:	f0 0d       	add	r31, r0
     1b8:	11 24       	eor	r1, r1
     1ba:	e6 0f       	add	r30, r22
     1bc:	f7 1f       	adc	r31, r23
     1be:	81 e0       	ldi	r24, 0x01	; 1
     1c0:	90 e0       	ldi	r25, 0x00	; 0
     1c2:	8c 0f       	add	r24, r28
     1c4:	9d 1f       	adc	r25, r29
     1c6:	e8 0f       	add	r30, r24
     1c8:	f9 1f       	adc	r31, r25
     1ca:	40 83       	st	Z, r20
     1cc:	5f 5f       	subi	r21, 0xFF	; 255
     1ce:	58 32       	cpi	r21, 0x28	; 40
     1d0:	30 f3       	brcs	.-52     	; 0x19e <main+0xa2>
     1d2:	83 b3       	in	r24, 0x13	; 19
     1d4:	82 30       	cpi	r24, 0x02	; 2
     1d6:	e9 f3       	breq	.-6      	; 0x1d2 <main+0xd6>
     1d8:	80 e4       	ldi	r24, 0x40	; 64
     1da:	96 e0       	ldi	r25, 0x06	; 6
     1dc:	01 97       	sbiw	r24, 0x01	; 1
     1de:	f1 f7       	brne	.-4      	; 0x1dc <main+0xe0>
     1e0:	af 5f       	subi	r26, 0xFF	; 255
     1e2:	a8 32       	cpi	r26, 0x28	; 40
     1e4:	b0 f2       	brcs	.-84     	; 0x192 <main+0x96>
     1e6:	9a c6       	rjmp	.+3380   	; 0xf1c <__stack+0x6bd>
     1e8:	d8 01       	movw	r26, r16
     1ea:	6c 91       	ld	r22, X
     1ec:	70 e0       	ldi	r23, 0x00	; 0
     1ee:	88 27       	eor	r24, r24
     1f0:	77 fd       	sbrc	r23, 7
     1f2:	80 95       	com	r24
     1f4:	98 2f       	mov	r25, r24
     1f6:	0e 94 ed 0f 	call	0x1fda	; 0x1fda <__floatsisf>
     1fa:	20 e0       	ldi	r18, 0x00	; 0
     1fc:	30 e0       	ldi	r19, 0x00	; 0
     1fe:	40 e8       	ldi	r20, 0x80	; 128
     200:	5d e3       	ldi	r21, 0x3D	; 61
     202:	0e 94 fd 10 	call	0x21fa	; 0x21fa <__mulsf3>
     206:	9b 01       	movw	r18, r22
     208:	ac 01       	movw	r20, r24
     20a:	0e 94 fd 10 	call	0x21fa	; 0x21fa <__mulsf3>
     20e:	0e 94 bf 0f 	call	0x1f7e	; 0x1f7e <__fixunssfsi>
     212:	f8 01       	movw	r30, r16
     214:	60 83       	st	Z, r22
     216:	65 36       	cpi	r22, 0x65	; 101
     218:	08 f4       	brcc	.+2      	; 0x21c <main+0x120>
     21a:	10 82       	st	Z, r1
     21c:	d8 01       	movw	r26, r16
     21e:	6c 91       	ld	r22, X
     220:	65 36       	cpi	r22, 0x65	; 101
     222:	e0 f0       	brcs	.+56     	; 0x25c <main+0x160>
     224:	64 56       	subi	r22, 0x64	; 100
     226:	6c 93       	st	X, r22
     228:	70 e0       	ldi	r23, 0x00	; 0
     22a:	88 27       	eor	r24, r24
     22c:	77 fd       	sbrc	r23, 7
     22e:	80 95       	com	r24
     230:	98 2f       	mov	r25, r24
     232:	0e 94 ed 0f 	call	0x1fda	; 0x1fda <__floatsisf>
     236:	2f e8       	ldi	r18, 0x8F	; 143
     238:	32 ec       	ldi	r19, 0xC2	; 194
     23a:	45 ed       	ldi	r20, 0xD5	; 213
     23c:	5f e3       	ldi	r21, 0x3F	; 63
     23e:	0e 94 fd 10 	call	0x21fa	; 0x21fa <__mulsf3>
     242:	0e 94 bf 0f 	call	0x1f7e	; 0x1f7e <__fixunssfsi>
     246:	dc 01       	movw	r26, r24
     248:	cb 01       	movw	r24, r22
     24a:	69 e1       	ldi	r22, 0x19	; 25
     24c:	0e 94 c8 11 	call	0x2390	; 0x2390 <__udivmodqi4>
     250:	99 e1       	ldi	r25, 0x19	; 25
     252:	89 9f       	mul	r24, r25
     254:	c0 01       	movw	r24, r0
     256:	11 24       	eor	r1, r1
     258:	f8 01       	movw	r30, r16
     25a:	80 83       	st	Z, r24
     25c:	d3 94       	inc	r13
     25e:	08 5d       	subi	r16, 0xD8	; 216
     260:	1f 4f       	sbci	r17, 0xFF	; 255
     262:	f8 e2       	ldi	r31, 0x28	; 40
     264:	df 16       	cp	r13, r31
     266:	09 f0       	breq	.+2      	; 0x26a <main+0x16e>
     268:	bf cf       	rjmp	.-130    	; 0x1e8 <main+0xec>
     26a:	08 94       	sec
     26c:	e1 1c       	adc	r14, r1
     26e:	f1 1c       	adc	r15, r1
     270:	28 e2       	ldi	r18, 0x28	; 40
     272:	e2 16       	cp	r14, r18
     274:	f1 04       	cpc	r15, r1
     276:	09 f4       	brne	.+2      	; 0x27a <main+0x17e>
     278:	05 c6       	rjmp	.+3082   	; 0xe84 <__stack+0x625>
     27a:	52 c6       	rjmp	.+3236   	; 0xf20 <__stack+0x6c1>
     27c:	d5 01       	movw	r26, r10
     27e:	6c 91       	ld	r22, X
     280:	f4 01       	movw	r30, r8
     282:	20 81       	ld	r18, Z
     284:	62 0f       	add	r22, r18
     286:	71 2d       	mov	r23, r1
     288:	71 1d       	adc	r23, r1
     28a:	d6 01       	movw	r26, r12
     28c:	2c 91       	ld	r18, X
     28e:	62 0f       	add	r22, r18
     290:	71 1d       	adc	r23, r1
     292:	f7 01       	movw	r30, r14
     294:	20 81       	ld	r18, Z
     296:	62 0f       	add	r22, r18
     298:	71 1d       	adc	r23, r1
     29a:	88 27       	eor	r24, r24
     29c:	77 fd       	sbrc	r23, 7
     29e:	80 95       	com	r24
     2a0:	98 2f       	mov	r25, r24
     2a2:	0e 94 ed 0f 	call	0x1fda	; 0x1fda <__floatsisf>
     2a6:	20 e0       	ldi	r18, 0x00	; 0
     2a8:	30 e0       	ldi	r19, 0x00	; 0
     2aa:	40 e8       	ldi	r20, 0x80	; 128
     2ac:	5e e3       	ldi	r21, 0x3E	; 62
     2ae:	0e 94 fd 10 	call	0x21fa	; 0x21fa <__mulsf3>
     2b2:	0e 94 bf 0f 	call	0x1f7e	; 0x1f7e <__fixunssfsi>
     2b6:	d4 01       	movw	r26, r8
     2b8:	6c 93       	st	X, r22
     2ba:	f5 01       	movw	r30, r10
     2bc:	60 83       	st	Z, r22
     2be:	d6 01       	movw	r26, r12
     2c0:	6c 93       	st	X, r22
     2c2:	f7 01       	movw	r30, r14
     2c4:	60 83       	st	Z, r22
     2c6:	73 94       	inc	r7
     2c8:	28 e2       	ldi	r18, 0x28	; 40
     2ca:	30 e0       	ldi	r19, 0x00	; 0
     2cc:	82 0e       	add	r8, r18
     2ce:	93 1e       	adc	r9, r19
     2d0:	a2 0e       	add	r10, r18
     2d2:	b3 1e       	adc	r11, r19
     2d4:	c2 0e       	add	r12, r18
     2d6:	d3 1e       	adc	r13, r19
     2d8:	e2 0e       	add	r14, r18
     2da:	f3 1e       	adc	r15, r19
     2dc:	35 e2       	ldi	r19, 0x25	; 37
     2de:	73 16       	cp	r7, r19
     2e0:	69 f6       	brne	.-102    	; 0x27c <main+0x180>
     2e2:	0f 5f       	subi	r16, 0xFF	; 255
     2e4:	1f 4f       	sbci	r17, 0xFF	; 255
     2e6:	08 32       	cpi	r16, 0x28	; 40
     2e8:	11 05       	cpc	r17, r1
     2ea:	09 f4       	brne	.+2      	; 0x2ee <main+0x1f2>
     2ec:	f3 c5       	rjmp	.+3046   	; 0xed4 <__stack+0x675>
     2ee:	cc c5       	rjmp	.+2968   	; 0xe88 <__stack+0x629>
     2f0:	d3 01       	movw	r26, r6
     2f2:	6c 91       	ld	r22, X
     2f4:	70 e0       	ldi	r23, 0x00	; 0
     2f6:	88 27       	eor	r24, r24
     2f8:	77 fd       	sbrc	r23, 7
     2fa:	80 95       	com	r24
     2fc:	98 2f       	mov	r25, r24
     2fe:	0e 94 ed 0f 	call	0x1fda	; 0x1fda <__floatsisf>
     302:	20 e0       	ldi	r18, 0x00	; 0
     304:	30 e0       	ldi	r19, 0x00	; 0
     306:	40 e8       	ldi	r20, 0x80	; 128
     308:	5d e3       	ldi	r21, 0x3D	; 61
     30a:	0e 94 fd 10 	call	0x21fa	; 0x21fa <__mulsf3>
     30e:	7b 01       	movw	r14, r22
     310:	8c 01       	movw	r16, r24
     312:	f5 01       	movw	r30, r10
     314:	60 81       	ld	r22, Z
     316:	70 e0       	ldi	r23, 0x00	; 0
     318:	88 27       	eor	r24, r24
     31a:	77 fd       	sbrc	r23, 7
     31c:	80 95       	com	r24
     31e:	98 2f       	mov	r25, r24
     320:	0e 94 ed 0f 	call	0x1fda	; 0x1fda <__floatsisf>
     324:	20 e0       	ldi	r18, 0x00	; 0
     326:	30 e0       	ldi	r19, 0x00	; 0
     328:	40 e0       	ldi	r20, 0x00	; 0
     32a:	5e e3       	ldi	r21, 0x3E	; 62
     32c:	0e 94 fd 10 	call	0x21fa	; 0x21fa <__mulsf3>
     330:	9b 01       	movw	r18, r22
     332:	ac 01       	movw	r20, r24
     334:	c8 01       	movw	r24, r16
     336:	b7 01       	movw	r22, r14
     338:	0e 94 af 0e 	call	0x1d5e	; 0x1d5e <__addsf3>
     33c:	7b 01       	movw	r14, r22
     33e:	8c 01       	movw	r16, r24
     340:	d4 01       	movw	r26, r8
     342:	6c 91       	ld	r22, X
     344:	70 e0       	ldi	r23, 0x00	; 0
     346:	88 27       	eor	r24, r24
     348:	77 fd       	sbrc	r23, 7
     34a:	80 95       	com	r24
     34c:	98 2f       	mov	r25, r24
     34e:	0e 94 ed 0f 	call	0x1fda	; 0x1fda <__floatsisf>
     352:	20 e0       	ldi	r18, 0x00	; 0
     354:	30 e0       	ldi	r19, 0x00	; 0
     356:	40 e8       	ldi	r20, 0x80	; 128
     358:	5d e3       	ldi	r21, 0x3D	; 61
     35a:	0e 94 fd 10 	call	0x21fa	; 0x21fa <__mulsf3>
     35e:	9b 01       	movw	r18, r22
     360:	ac 01       	movw	r20, r24
     362:	c8 01       	movw	r24, r16
     364:	b7 01       	movw	r22, r14
     366:	0e 94 af 0e 	call	0x1d5e	; 0x1d5e <__addsf3>
     36a:	7b 01       	movw	r14, r22
     36c:	8c 01       	movw	r16, r24
     36e:	f3 01       	movw	r30, r6
     370:	61 81       	ldd	r22, Z+1	; 0x01
     372:	70 e0       	ldi	r23, 0x00	; 0
     374:	88 27       	eor	r24, r24
     376:	77 fd       	sbrc	r23, 7
     378:	80 95       	com	r24
     37a:	98 2f       	mov	r25, r24
     37c:	0e 94 ed 0f 	call	0x1fda	; 0x1fda <__floatsisf>
     380:	20 e0       	ldi	r18, 0x00	; 0
     382:	30 e0       	ldi	r19, 0x00	; 0
     384:	40 e0       	ldi	r20, 0x00	; 0
     386:	5e e3       	ldi	r21, 0x3E	; 62
     388:	0e 94 fd 10 	call	0x21fa	; 0x21fa <__mulsf3>
     38c:	9b 01       	movw	r18, r22
     38e:	ac 01       	movw	r20, r24
     390:	c8 01       	movw	r24, r16
     392:	b7 01       	movw	r22, r14
     394:	0e 94 af 0e 	call	0x1d5e	; 0x1d5e <__addsf3>
     398:	7b 01       	movw	r14, r22
     39a:	8c 01       	movw	r16, r24
     39c:	f5 01       	movw	r30, r10
     39e:	61 81       	ldd	r22, Z+1	; 0x01
     3a0:	70 e0       	ldi	r23, 0x00	; 0
     3a2:	88 27       	eor	r24, r24
     3a4:	77 fd       	sbrc	r23, 7
     3a6:	80 95       	com	r24
     3a8:	98 2f       	mov	r25, r24
     3aa:	0e 94 ed 0f 	call	0x1fda	; 0x1fda <__floatsisf>
     3ae:	20 e0       	ldi	r18, 0x00	; 0
     3b0:	30 e0       	ldi	r19, 0x00	; 0
     3b2:	40 e8       	ldi	r20, 0x80	; 128
     3b4:	5e e3       	ldi	r21, 0x3E	; 62
     3b6:	0e 94 fd 10 	call	0x21fa	; 0x21fa <__mulsf3>
     3ba:	9b 01       	movw	r18, r22
     3bc:	ac 01       	movw	r20, r24
     3be:	c8 01       	movw	r24, r16
     3c0:	b7 01       	movw	r22, r14
     3c2:	0e 94 af 0e 	call	0x1d5e	; 0x1d5e <__addsf3>
     3c6:	7b 01       	movw	r14, r22
     3c8:	8c 01       	movw	r16, r24
     3ca:	f4 01       	movw	r30, r8
     3cc:	61 81       	ldd	r22, Z+1	; 0x01
     3ce:	70 e0       	ldi	r23, 0x00	; 0
     3d0:	88 27       	eor	r24, r24
     3d2:	77 fd       	sbrc	r23, 7
     3d4:	80 95       	com	r24
     3d6:	98 2f       	mov	r25, r24
     3d8:	0e 94 ed 0f 	call	0x1fda	; 0x1fda <__floatsisf>
     3dc:	20 e0       	ldi	r18, 0x00	; 0
     3de:	30 e0       	ldi	r19, 0x00	; 0
     3e0:	40 e0       	ldi	r20, 0x00	; 0
     3e2:	5e e3       	ldi	r21, 0x3E	; 62
     3e4:	0e 94 fd 10 	call	0x21fa	; 0x21fa <__mulsf3>
     3e8:	9b 01       	movw	r18, r22
     3ea:	ac 01       	movw	r20, r24
     3ec:	c8 01       	movw	r24, r16
     3ee:	b7 01       	movw	r22, r14
     3f0:	0e 94 af 0e 	call	0x1d5e	; 0x1d5e <__addsf3>
     3f4:	7b 01       	movw	r14, r22
     3f6:	8c 01       	movw	r16, r24
     3f8:	f3 01       	movw	r30, r6
     3fa:	62 81       	ldd	r22, Z+2	; 0x02
     3fc:	70 e0       	ldi	r23, 0x00	; 0
     3fe:	88 27       	eor	r24, r24
     400:	77 fd       	sbrc	r23, 7
     402:	80 95       	com	r24
     404:	98 2f       	mov	r25, r24
     406:	0e 94 ed 0f 	call	0x1fda	; 0x1fda <__floatsisf>
     40a:	20 e0       	ldi	r18, 0x00	; 0
     40c:	30 e0       	ldi	r19, 0x00	; 0
     40e:	40 e8       	ldi	r20, 0x80	; 128
     410:	5d e3       	ldi	r21, 0x3D	; 61
     412:	0e 94 fd 10 	call	0x21fa	; 0x21fa <__mulsf3>
     416:	9b 01       	movw	r18, r22
     418:	ac 01       	movw	r20, r24
     41a:	c8 01       	movw	r24, r16
     41c:	b7 01       	movw	r22, r14
     41e:	0e 94 af 0e 	call	0x1d5e	; 0x1d5e <__addsf3>
     422:	7b 01       	movw	r14, r22
     424:	8c 01       	movw	r16, r24
     426:	f5 01       	movw	r30, r10
     428:	62 81       	ldd	r22, Z+2	; 0x02
     42a:	70 e0       	ldi	r23, 0x00	; 0
     42c:	88 27       	eor	r24, r24
     42e:	77 fd       	sbrc	r23, 7
     430:	80 95       	com	r24
     432:	98 2f       	mov	r25, r24
     434:	0e 94 ed 0f 	call	0x1fda	; 0x1fda <__floatsisf>
     438:	20 e0       	ldi	r18, 0x00	; 0
     43a:	30 e0       	ldi	r19, 0x00	; 0
     43c:	40 e0       	ldi	r20, 0x00	; 0
     43e:	5e e3       	ldi	r21, 0x3E	; 62
     440:	0e 94 fd 10 	call	0x21fa	; 0x21fa <__mulsf3>
     444:	9b 01       	movw	r18, r22
     446:	ac 01       	movw	r20, r24
     448:	c8 01       	movw	r24, r16
     44a:	b7 01       	movw	r22, r14
     44c:	0e 94 af 0e 	call	0x1d5e	; 0x1d5e <__addsf3>
     450:	7b 01       	movw	r14, r22
     452:	8c 01       	movw	r16, r24
     454:	f4 01       	movw	r30, r8
     456:	62 81       	ldd	r22, Z+2	; 0x02
     458:	70 e0       	ldi	r23, 0x00	; 0
     45a:	88 27       	eor	r24, r24
     45c:	77 fd       	sbrc	r23, 7
     45e:	80 95       	com	r24
     460:	98 2f       	mov	r25, r24
     462:	0e 94 ed 0f 	call	0x1fda	; 0x1fda <__floatsisf>
     466:	20 e0       	ldi	r18, 0x00	; 0
     468:	30 e0       	ldi	r19, 0x00	; 0
     46a:	40 e8       	ldi	r20, 0x80	; 128
     46c:	5d e3       	ldi	r21, 0x3D	; 61
     46e:	0e 94 fd 10 	call	0x21fa	; 0x21fa <__mulsf3>
     472:	9b 01       	movw	r18, r22
     474:	ac 01       	movw	r20, r24
     476:	c8 01       	movw	r24, r16
     478:	b7 01       	movw	r22, r14
     47a:	0e 94 af 0e 	call	0x1d5e	; 0x1d5e <__addsf3>
     47e:	0e 94 bf 0f 	call	0x1f7e	; 0x1f7e <__fixunssfsi>
     482:	f5 01       	movw	r30, r10
     484:	61 83       	std	Z+1, r22	; 0x01
     486:	53 94       	inc	r5
     488:	28 e2       	ldi	r18, 0x28	; 40
     48a:	30 e0       	ldi	r19, 0x00	; 0
     48c:	62 0e       	add	r6, r18
     48e:	73 1e       	adc	r7, r19
     490:	a2 0e       	add	r10, r18
     492:	b3 1e       	adc	r11, r19
     494:	82 0e       	add	r8, r18
     496:	93 1e       	adc	r9, r19
     498:	37 e2       	ldi	r19, 0x27	; 39
     49a:	53 16       	cp	r5, r19
     49c:	09 f0       	breq	.+2      	; 0x4a0 <main+0x3a4>
     49e:	28 cf       	rjmp	.-432    	; 0x2f0 <main+0x1f4>
     4a0:	08 94       	sec
     4a2:	c1 1c       	adc	r12, r1
     4a4:	d1 1c       	adc	r13, r1
     4a6:	86 e2       	ldi	r24, 0x26	; 38
     4a8:	c8 16       	cp	r12, r24
     4aa:	d1 04       	cpc	r13, r1
     4ac:	09 f4       	brne	.+2      	; 0x4b0 <main+0x3b4>
     4ae:	40 c5       	rjmp	.+2688   	; 0xf30 <__stack+0x6d1>
     4b0:	13 c5       	rjmp	.+2598   	; 0xed8 <__stack+0x679>
     4b2:	c0 5b       	subi	r28, 0xB0	; 176
     4b4:	d9 4f       	sbci	r29, 0xF9	; 249
     4b6:	a8 81       	ld	r26, Y
     4b8:	b9 81       	ldd	r27, Y+1	; 0x01
     4ba:	c0 55       	subi	r28, 0x50	; 80
     4bc:	d6 40       	sbci	r29, 0x06	; 6
     4be:	ac 90       	ld	r10, X
     4c0:	bb 24       	eor	r11, r11
     4c2:	c2 5b       	subi	r28, 0xB2	; 178
     4c4:	d9 4f       	sbci	r29, 0xF9	; 249
     4c6:	e8 81       	ld	r30, Y
     4c8:	f9 81       	ldd	r31, Y+1	; 0x01
     4ca:	ce 54       	subi	r28, 0x4E	; 78
     4cc:	d6 40       	sbci	r29, 0x06	; 6
     4ce:	20 80       	ld	r2, Z
     4d0:	33 24       	eor	r3, r3
     4d2:	b5 01       	movw	r22, r10
     4d4:	62 19       	sub	r22, r2
     4d6:	73 09       	sbc	r23, r3
     4d8:	88 27       	eor	r24, r24
     4da:	77 fd       	sbrc	r23, 7
     4dc:	80 95       	com	r24
     4de:	98 2f       	mov	r25, r24
     4e0:	0e 94 ed 0f 	call	0x1fda	; 0x1fda <__floatsisf>
     4e4:	20 e0       	ldi	r18, 0x00	; 0
     4e6:	30 e0       	ldi	r19, 0x00	; 0
     4e8:	40 e8       	ldi	r20, 0x80	; 128
     4ea:	5e e3       	ldi	r21, 0x3E	; 62
     4ec:	0e 94 fd 10 	call	0x21fa	; 0x21fa <__mulsf3>
     4f0:	7b 01       	movw	r14, r22
     4f2:	8c 01       	movw	r16, r24
     4f4:	c0 5b       	subi	r28, 0xB0	; 176
     4f6:	d9 4f       	sbci	r29, 0xF9	; 249
     4f8:	e8 81       	ld	r30, Y
     4fa:	f9 81       	ldd	r31, Y+1	; 0x01
     4fc:	c0 55       	subi	r28, 0x50	; 80
     4fe:	d6 40       	sbci	r29, 0x06	; 6
     500:	61 81       	ldd	r22, Z+1	; 0x01
     502:	70 e0       	ldi	r23, 0x00	; 0
     504:	c2 5b       	subi	r28, 0xB2	; 178
     506:	d9 4f       	sbci	r29, 0xF9	; 249
     508:	e8 81       	ld	r30, Y
     50a:	f9 81       	ldd	r31, Y+1	; 0x01
     50c:	ce 54       	subi	r28, 0x4E	; 78
     50e:	d6 40       	sbci	r29, 0x06	; 6
     510:	21 81       	ldd	r18, Z+1	; 0x01
     512:	62 1b       	sub	r22, r18
     514:	71 09       	sbc	r23, r1
     516:	88 27       	eor	r24, r24
     518:	77 fd       	sbrc	r23, 7
     51a:	80 95       	com	r24
     51c:	98 2f       	mov	r25, r24
     51e:	0e 94 ed 0f 	call	0x1fda	; 0x1fda <__floatsisf>
     522:	20 e0       	ldi	r18, 0x00	; 0
     524:	30 e0       	ldi	r19, 0x00	; 0
     526:	40 e0       	ldi	r20, 0x00	; 0
     528:	5f e3       	ldi	r21, 0x3F	; 63
     52a:	0e 94 fd 10 	call	0x21fa	; 0x21fa <__mulsf3>
     52e:	9b 01       	movw	r18, r22
     530:	ac 01       	movw	r20, r24
     532:	c8 01       	movw	r24, r16
     534:	b7 01       	movw	r22, r14
     536:	0e 94 af 0e 	call	0x1d5e	; 0x1d5e <__addsf3>
     53a:	3b 01       	movw	r6, r22
     53c:	4c 01       	movw	r8, r24
     53e:	c0 5b       	subi	r28, 0xB0	; 176
     540:	d9 4f       	sbci	r29, 0xF9	; 249
     542:	e8 81       	ld	r30, Y
     544:	f9 81       	ldd	r31, Y+1	; 0x01
     546:	c0 55       	subi	r28, 0x50	; 80
     548:	d6 40       	sbci	r29, 0x06	; 6
     54a:	42 80       	ldd	r4, Z+2	; 0x02
     54c:	55 24       	eor	r5, r5
     54e:	c2 5b       	subi	r28, 0xB2	; 178
     550:	d9 4f       	sbci	r29, 0xF9	; 249
     552:	e8 81       	ld	r30, Y
     554:	f9 81       	ldd	r31, Y+1	; 0x01
     556:	ce 54       	subi	r28, 0x4E	; 78
     558:	d6 40       	sbci	r29, 0x06	; 6
     55a:	e2 80       	ldd	r14, Z+2	; 0x02
     55c:	ff 24       	eor	r15, r15
     55e:	b2 01       	movw	r22, r4
     560:	6e 19       	sub	r22, r14
     562:	7f 09       	sbc	r23, r15
     564:	88 27       	eor	r24, r24
     566:	77 fd       	sbrc	r23, 7
     568:	80 95       	com	r24
     56a:	98 2f       	mov	r25, r24
     56c:	0e 94 ed 0f 	call	0x1fda	; 0x1fda <__floatsisf>
     570:	20 e0       	ldi	r18, 0x00	; 0
     572:	30 e0       	ldi	r19, 0x00	; 0
     574:	40 e8       	ldi	r20, 0x80	; 128
     576:	5e e3       	ldi	r21, 0x3E	; 62
     578:	0e 94 fd 10 	call	0x21fa	; 0x21fa <__mulsf3>
     57c:	9b 01       	movw	r18, r22
     57e:	ac 01       	movw	r20, r24
     580:	c4 01       	movw	r24, r8
     582:	b3 01       	movw	r22, r6
     584:	0e 94 af 0e 	call	0x1d5e	; 0x1d5e <__addsf3>
     588:	3b 01       	movw	r6, r22
     58a:	4c 01       	movw	r8, r24
     58c:	e2 18       	sub	r14, r2
     58e:	f3 08       	sbc	r15, r3
     590:	00 27       	eor	r16, r16
     592:	f7 fc       	sbrc	r15, 7
     594:	00 95       	com	r16
     596:	10 2f       	mov	r17, r16
     598:	c8 01       	movw	r24, r16
     59a:	b7 01       	movw	r22, r14
     59c:	0e 94 ed 0f 	call	0x1fda	; 0x1fda <__floatsisf>
     5a0:	20 e0       	ldi	r18, 0x00	; 0
     5a2:	30 e0       	ldi	r19, 0x00	; 0
     5a4:	40 e8       	ldi	r20, 0x80	; 128
     5a6:	5e e3       	ldi	r21, 0x3E	; 62
     5a8:	0e 94 fd 10 	call	0x21fa	; 0x21fa <__mulsf3>
     5ac:	7b 01       	movw	r14, r22
     5ae:	8c 01       	movw	r16, r24
     5b0:	c4 5b       	subi	r28, 0xB4	; 180
     5b2:	d9 4f       	sbci	r29, 0xF9	; 249
     5b4:	a8 81       	ld	r26, Y
     5b6:	b9 81       	ldd	r27, Y+1	; 0x01
     5b8:	cc 54       	subi	r28, 0x4C	; 76
     5ba:	d6 40       	sbci	r29, 0x06	; 6
     5bc:	6c 91       	ld	r22, X
     5be:	70 e0       	ldi	r23, 0x00	; 0
     5c0:	fd 01       	movw	r30, r26
     5c2:	22 81       	ldd	r18, Z+2	; 0x02
     5c4:	62 1b       	sub	r22, r18
     5c6:	71 09       	sbc	r23, r1
     5c8:	88 27       	eor	r24, r24
     5ca:	77 fd       	sbrc	r23, 7
     5cc:	80 95       	com	r24
     5ce:	98 2f       	mov	r25, r24
     5d0:	0e 94 ed 0f 	call	0x1fda	; 0x1fda <__floatsisf>
     5d4:	20 e0       	ldi	r18, 0x00	; 0
     5d6:	30 e0       	ldi	r19, 0x00	; 0
     5d8:	40 e0       	ldi	r20, 0x00	; 0
     5da:	5f e3       	ldi	r21, 0x3F	; 63
     5dc:	0e 94 fd 10 	call	0x21fa	; 0x21fa <__mulsf3>
     5e0:	9b 01       	movw	r18, r22
     5e2:	ac 01       	movw	r20, r24
     5e4:	c8 01       	movw	r24, r16
     5e6:	b7 01       	movw	r22, r14
     5e8:	0e 94 af 0e 	call	0x1d5e	; 0x1d5e <__addsf3>
     5ec:	7b 01       	movw	r14, r22
     5ee:	8c 01       	movw	r16, r24
     5f0:	a4 18       	sub	r10, r4
     5f2:	b5 08       	sbc	r11, r5
     5f4:	cc 24       	eor	r12, r12
     5f6:	b7 fc       	sbrc	r11, 7
     5f8:	c0 94       	com	r12
     5fa:	dc 2c       	mov	r13, r12
     5fc:	c6 01       	movw	r24, r12
     5fe:	b5 01       	movw	r22, r10
     600:	0e 94 ed 0f 	call	0x1fda	; 0x1fda <__floatsisf>
     604:	20 e0       	ldi	r18, 0x00	; 0
     606:	30 e0       	ldi	r19, 0x00	; 0
     608:	40 e8       	ldi	r20, 0x80	; 128
     60a:	5e e3       	ldi	r21, 0x3E	; 62
     60c:	0e 94 fd 10 	call	0x21fa	; 0x21fa <__mulsf3>
     610:	9b 01       	movw	r18, r22
     612:	ac 01       	movw	r20, r24
     614:	c8 01       	movw	r24, r16
     616:	b7 01       	movw	r22, r14
     618:	0e 94 af 0e 	call	0x1d5e	; 0x1d5e <__addsf3>
     61c:	5b 01       	movw	r10, r22
     61e:	6c 01       	movw	r12, r24
     620:	a4 01       	movw	r20, r8
     622:	93 01       	movw	r18, r6
     624:	c4 01       	movw	r24, r8
     626:	b3 01       	movw	r22, r6
     628:	0e 94 fd 10 	call	0x21fa	; 0x21fa <__mulsf3>
     62c:	0e 94 bf 0f 	call	0x1f7e	; 0x1f7e <__fixunssfsi>
     630:	80 e0       	ldi	r24, 0x00	; 0
     632:	90 e0       	ldi	r25, 0x00	; 0
     634:	0e 94 00 0d 	call	0x1a00	; 0x1a00 <__floatunsisf>
     638:	7b 01       	movw	r14, r22
     63a:	8c 01       	movw	r16, r24
     63c:	a6 01       	movw	r20, r12
     63e:	95 01       	movw	r18, r10
     640:	c6 01       	movw	r24, r12
     642:	b5 01       	movw	r22, r10
     644:	0e 94 fd 10 	call	0x21fa	; 0x21fa <__mulsf3>
     648:	9b 01       	movw	r18, r22
     64a:	ac 01       	movw	r20, r24
     64c:	c8 01       	movw	r24, r16
     64e:	b7 01       	movw	r22, r14
     650:	0e 94 af 0e 	call	0x1d5e	; 0x1d5e <__addsf3>
     654:	0e 94 bf 0f 	call	0x1f7e	; 0x1f7e <__fixunssfsi>
     658:	80 e0       	ldi	r24, 0x00	; 0
     65a:	90 e0       	ldi	r25, 0x00	; 0
     65c:	0e 94 00 0d 	call	0x1a00	; 0x1a00 <__floatunsisf>
     660:	0e 94 64 11 	call	0x22c8	; 0x22c8 <sqrt>
     664:	0e 94 bf 0f 	call	0x1f7e	; 0x1f7e <__fixunssfsi>
     668:	ab 01       	movw	r20, r22
     66a:	bc 01       	movw	r22, r24
     66c:	54 2e       	mov	r5, r20
     66e:	c4 5b       	subi	r28, 0xB4	; 180
     670:	d9 4f       	sbci	r29, 0xF9	; 249
     672:	e8 81       	ld	r30, Y
     674:	f9 81       	ldd	r31, Y+1	; 0x01
     676:	cc 54       	subi	r28, 0x4C	; 76
     678:	d6 40       	sbci	r29, 0x06	; 6
     67a:	41 83       	std	Z+1, r20	; 0x01
     67c:	24 2f       	mov	r18, r20
     67e:	30 e0       	ldi	r19, 0x00	; 0
     680:	c2 5a       	subi	r28, 0xA2	; 162
     682:	d9 4f       	sbci	r29, 0xF9	; 249
     684:	f8 81       	ld	r31, Y
     686:	ce 55       	subi	r28, 0x5E	; 94
     688:	d6 40       	sbci	r29, 0x06	; 6
     68a:	8f 2f       	mov	r24, r31
     68c:	90 e0       	ldi	r25, 0x00	; 0
     68e:	02 96       	adiw	r24, 0x02	; 2
     690:	82 17       	cp	r24, r18
     692:	93 07       	cpc	r25, r19
     694:	2c f4       	brge	.+10     	; 0x6a0 <main+0x5a4>
     696:	c2 5a       	subi	r28, 0xA2	; 162
     698:	d9 4f       	sbci	r29, 0xF9	; 249
     69a:	48 83       	st	Y, r20
     69c:	ce 55       	subi	r28, 0x5E	; 94
     69e:	d6 40       	sbci	r29, 0x06	; 6
     6a0:	a4 01       	movw	r20, r8
     6a2:	93 01       	movw	r18, r6
     6a4:	c6 01       	movw	r24, r12
     6a6:	b5 01       	movw	r22, r10
     6a8:	0e 94 52 0f 	call	0x1ea4	; 0x1ea4 <__divsf3>
     6ac:	7b 01       	movw	r14, r22
     6ae:	8c 01       	movw	r16, r24
     6b0:	28 eb       	ldi	r18, 0xB8	; 184
     6b2:	3e e1       	ldi	r19, 0x1E	; 30
     6b4:	45 e8       	ldi	r20, 0x85	; 133
     6b6:	5e eb       	ldi	r21, 0xBE	; 190
     6b8:	0e 94 47 10 	call	0x208e	; 0x208e <__gesf2>
     6bc:	88 23       	and	r24, r24
     6be:	1c f1       	brlt	.+70     	; 0x706 <main+0x60a>
     6c0:	28 eb       	ldi	r18, 0xB8	; 184
     6c2:	3e e1       	ldi	r19, 0x1E	; 30
     6c4:	45 e8       	ldi	r20, 0x85	; 133
     6c6:	5e e3       	ldi	r21, 0x3E	; 62
     6c8:	c8 01       	movw	r24, r16
     6ca:	b7 01       	movw	r22, r14
     6cc:	0e 94 43 10 	call	0x2086	; 0x2086 <__cmpsf2>
     6d0:	88 23       	and	r24, r24
     6d2:	cc f4       	brge	.+50     	; 0x706 <main+0x60a>
     6d4:	c0 5b       	subi	r28, 0xB0	; 176
     6d6:	d9 4f       	sbci	r29, 0xF9	; 249
     6d8:	e8 81       	ld	r30, Y
     6da:	f9 81       	ldd	r31, Y+1	; 0x01
     6dc:	c0 55       	subi	r28, 0x50	; 80
     6de:	d6 40       	sbci	r29, 0x06	; 6
     6e0:	81 81       	ldd	r24, Z+1	; 0x01
     6e2:	58 16       	cp	r5, r24
     6e4:	48 f0       	brcs	.+18     	; 0x6f8 <main+0x5fc>
     6e6:	c2 5b       	subi	r28, 0xB2	; 178
     6e8:	d9 4f       	sbci	r29, 0xF9	; 249
     6ea:	e8 81       	ld	r30, Y
     6ec:	f9 81       	ldd	r31, Y+1	; 0x01
     6ee:	ce 54       	subi	r28, 0x4E	; 78
     6f0:	d6 40       	sbci	r29, 0x06	; 6
     6f2:	81 81       	ldd	r24, Z+1	; 0x01
     6f4:	58 16       	cp	r5, r24
     6f6:	38 f4       	brcc	.+14     	; 0x706 <main+0x60a>
     6f8:	c4 5b       	subi	r28, 0xB4	; 180
     6fa:	d9 4f       	sbci	r29, 0xF9	; 249
     6fc:	e8 81       	ld	r30, Y
     6fe:	f9 81       	ldd	r31, Y+1	; 0x01
     700:	cc 54       	subi	r28, 0x4C	; 76
     702:	d6 40       	sbci	r29, 0x06	; 6
     704:	11 82       	std	Z+1, r1	; 0x01
     706:	25 e8       	ldi	r18, 0x85	; 133
     708:	3b ee       	ldi	r19, 0xEB	; 235
     70a:	41 e1       	ldi	r20, 0x11	; 17
     70c:	5f e3       	ldi	r21, 0x3F	; 63
     70e:	c8 01       	movw	r24, r16
     710:	b7 01       	movw	r22, r14
     712:	0e 94 47 10 	call	0x208e	; 0x208e <__gesf2>
     716:	18 16       	cp	r1, r24
     718:	54 f5       	brge	.+84     	; 0x76e <main+0x672>
     71a:	24 ea       	ldi	r18, 0xA4	; 164
     71c:	30 e7       	ldi	r19, 0x70	; 112
     71e:	4d ed       	ldi	r20, 0xDD	; 221
     720:	5f e3       	ldi	r21, 0x3F	; 63
     722:	c8 01       	movw	r24, r16
     724:	b7 01       	movw	r22, r14
     726:	0e 94 43 10 	call	0x2086	; 0x2086 <__cmpsf2>
     72a:	88 23       	and	r24, r24
     72c:	04 f5       	brge	.+64     	; 0x76e <main+0x672>
     72e:	c4 5b       	subi	r28, 0xB4	; 180
     730:	d9 4f       	sbci	r29, 0xF9	; 249
     732:	e8 81       	ld	r30, Y
     734:	f9 81       	ldd	r31, Y+1	; 0x01
     736:	cc 54       	subi	r28, 0x4C	; 76
     738:	d6 40       	sbci	r29, 0x06	; 6
     73a:	91 81       	ldd	r25, Z+1	; 0x01
     73c:	c0 5b       	subi	r28, 0xB0	; 176
     73e:	d9 4f       	sbci	r29, 0xF9	; 249
     740:	e8 81       	ld	r30, Y
     742:	f9 81       	ldd	r31, Y+1	; 0x01
     744:	c0 55       	subi	r28, 0x50	; 80
     746:	d6 40       	sbci	r29, 0x06	; 6
     748:	82 81       	ldd	r24, Z+2	; 0x02
     74a:	98 17       	cp	r25, r24
     74c:	48 f0       	brcs	.+18     	; 0x760 <main+0x664>
     74e:	c2 5b       	subi	r28, 0xB2	; 178
     750:	d9 4f       	sbci	r29, 0xF9	; 249
     752:	a8 81       	ld	r26, Y
     754:	b9 81       	ldd	r27, Y+1	; 0x01
     756:	ce 54       	subi	r28, 0x4E	; 78
     758:	d6 40       	sbci	r29, 0x06	; 6
     75a:	8c 91       	ld	r24, X
     75c:	98 17       	cp	r25, r24
     75e:	38 f4       	brcc	.+14     	; 0x76e <main+0x672>
     760:	c4 5b       	subi	r28, 0xB4	; 180
     762:	d9 4f       	sbci	r29, 0xF9	; 249
     764:	e8 81       	ld	r30, Y
     766:	f9 81       	ldd	r31, Y+1	; 0x01
     768:	cc 54       	subi	r28, 0x4C	; 76
     76a:	d6 40       	sbci	r29, 0x06	; 6
     76c:	11 82       	std	Z+1, r1	; 0x01
     76e:	22 e5       	ldi	r18, 0x52	; 82
     770:	38 eb       	ldi	r19, 0xB8	; 184
     772:	4e e6       	ldi	r20, 0x6E	; 110
     774:	50 e4       	ldi	r21, 0x40	; 64
     776:	c8 01       	movw	r24, r16
     778:	b7 01       	movw	r22, r14
     77a:	0e 94 47 10 	call	0x208e	; 0x208e <__gesf2>
     77e:	18 16       	cp	r1, r24
     780:	54 f0       	brlt	.+20     	; 0x796 <main+0x69a>
     782:	22 e5       	ldi	r18, 0x52	; 82
     784:	38 eb       	ldi	r19, 0xB8	; 184
     786:	4e e6       	ldi	r20, 0x6E	; 110
     788:	50 ec       	ldi	r21, 0xC0	; 192
     78a:	c8 01       	movw	r24, r16
     78c:	b7 01       	movw	r22, r14
     78e:	0e 94 43 10 	call	0x2086	; 0x2086 <__cmpsf2>
     792:	88 23       	and	r24, r24
     794:	a4 f4       	brge	.+40     	; 0x7be <main+0x6c2>
     796:	c4 5b       	subi	r28, 0xB4	; 180
     798:	d9 4f       	sbci	r29, 0xF9	; 249
     79a:	e8 81       	ld	r30, Y
     79c:	f9 81       	ldd	r31, Y+1	; 0x01
     79e:	cc 54       	subi	r28, 0x4C	; 76
     7a0:	d6 40       	sbci	r29, 0x06	; 6
     7a2:	91 81       	ldd	r25, Z+1	; 0x01
     7a4:	82 81       	ldd	r24, Z+2	; 0x02
     7a6:	98 17       	cp	r25, r24
     7a8:	18 f0       	brcs	.+6      	; 0x7b0 <main+0x6b4>
     7aa:	80 81       	ld	r24, Z
     7ac:	98 17       	cp	r25, r24
     7ae:	38 f4       	brcc	.+14     	; 0x7be <main+0x6c2>
     7b0:	c4 5b       	subi	r28, 0xB4	; 180
     7b2:	d9 4f       	sbci	r29, 0xF9	; 249
     7b4:	e8 81       	ld	r30, Y
     7b6:	f9 81       	ldd	r31, Y+1	; 0x01
     7b8:	cc 54       	subi	r28, 0x4C	; 76
     7ba:	d6 40       	sbci	r29, 0x06	; 6
     7bc:	11 82       	std	Z+1, r1	; 0x01
     7be:	24 ea       	ldi	r18, 0xA4	; 164
     7c0:	30 e7       	ldi	r19, 0x70	; 112
     7c2:	4d ed       	ldi	r20, 0xDD	; 221
     7c4:	5f eb       	ldi	r21, 0xBF	; 191
     7c6:	c8 01       	movw	r24, r16
     7c8:	b7 01       	movw	r22, r14
     7ca:	0e 94 47 10 	call	0x208e	; 0x208e <__gesf2>
     7ce:	18 16       	cp	r1, r24
     7d0:	54 f5       	brge	.+84     	; 0x826 <main+0x72a>
     7d2:	25 e8       	ldi	r18, 0x85	; 133
     7d4:	3b ee       	ldi	r19, 0xEB	; 235
     7d6:	41 e1       	ldi	r20, 0x11	; 17
     7d8:	5f eb       	ldi	r21, 0xBF	; 191
     7da:	c8 01       	movw	r24, r16
     7dc:	b7 01       	movw	r22, r14
     7de:	0e 94 43 10 	call	0x2086	; 0x2086 <__cmpsf2>
     7e2:	88 23       	and	r24, r24
     7e4:	04 f5       	brge	.+64     	; 0x826 <main+0x72a>
     7e6:	c4 5b       	subi	r28, 0xB4	; 180
     7e8:	d9 4f       	sbci	r29, 0xF9	; 249
     7ea:	e8 81       	ld	r30, Y
     7ec:	f9 81       	ldd	r31, Y+1	; 0x01
     7ee:	cc 54       	subi	r28, 0x4C	; 76
     7f0:	d6 40       	sbci	r29, 0x06	; 6
     7f2:	91 81       	ldd	r25, Z+1	; 0x01
     7f4:	c2 5b       	subi	r28, 0xB2	; 178
     7f6:	d9 4f       	sbci	r29, 0xF9	; 249
     7f8:	e8 81       	ld	r30, Y
     7fa:	f9 81       	ldd	r31, Y+1	; 0x01
     7fc:	ce 54       	subi	r28, 0x4E	; 78
     7fe:	d6 40       	sbci	r29, 0x06	; 6
     800:	82 81       	ldd	r24, Z+2	; 0x02
     802:	98 17       	cp	r25, r24
     804:	48 f0       	brcs	.+18     	; 0x818 <main+0x71c>
     806:	c0 5b       	subi	r28, 0xB0	; 176
     808:	d9 4f       	sbci	r29, 0xF9	; 249
     80a:	a8 81       	ld	r26, Y
     80c:	b9 81       	ldd	r27, Y+1	; 0x01
     80e:	c0 55       	subi	r28, 0x50	; 80
     810:	d6 40       	sbci	r29, 0x06	; 6
     812:	8c 91       	ld	r24, X
     814:	98 17       	cp	r25, r24
     816:	38 f4       	brcc	.+14     	; 0x826 <main+0x72a>
     818:	c4 5b       	subi	r28, 0xB4	; 180
     81a:	d9 4f       	sbci	r29, 0xF9	; 249
     81c:	e8 81       	ld	r30, Y
     81e:	f9 81       	ldd	r31, Y+1	; 0x01
     820:	cc 54       	subi	r28, 0x4C	; 76
     822:	d6 40       	sbci	r29, 0x06	; 6
     824:	11 82       	std	Z+1, r1	; 0x01
     826:	c4 5b       	subi	r28, 0xB4	; 180
     828:	d9 4f       	sbci	r29, 0xF9	; 249
     82a:	e8 81       	ld	r30, Y
     82c:	f9 81       	ldd	r31, Y+1	; 0x01
     82e:	cc 54       	subi	r28, 0x4C	; 76
     830:	d6 40       	sbci	r29, 0x06	; 6
     832:	91 81       	ldd	r25, Z+1	; 0x01
     834:	9a 31       	cpi	r25, 0x1A	; 26
     836:	08 f4       	brcc	.+2      	; 0x83a <main+0x73e>
     838:	6e c0       	rjmp	.+220    	; 0x916 <__stack+0xb7>
     83a:	89 2f       	mov	r24, r25
     83c:	8a 51       	subi	r24, 0x1A	; 26
     83e:	85 30       	cpi	r24, 0x05	; 5
     840:	18 f5       	brcc	.+70     	; 0x888 <__stack+0x29>
     842:	c0 5b       	subi	r28, 0xB0	; 176
     844:	d9 4f       	sbci	r29, 0xF9	; 249
     846:	e8 81       	ld	r30, Y
     848:	f9 81       	ldd	r31, Y+1	; 0x01
     84a:	c0 55       	subi	r28, 0x50	; 80
     84c:	d6 40       	sbci	r29, 0x06	; 6
     84e:	81 81       	ldd	r24, Z+1	; 0x01
     850:	88 32       	cpi	r24, 0x28	; 40
     852:	08 f0       	brcs	.+2      	; 0x856 <main+0x75a>
     854:	61 c0       	rjmp	.+194    	; 0x918 <__stack+0xb9>
     856:	c2 5b       	subi	r28, 0xB2	; 178
     858:	d9 4f       	sbci	r29, 0xF9	; 249
     85a:	e8 81       	ld	r30, Y
     85c:	f9 81       	ldd	r31, Y+1	; 0x01
     85e:	ce 54       	subi	r28, 0x4E	; 78
     860:	d6 40       	sbci	r29, 0x06	; 6
     862:	81 81       	ldd	r24, Z+1	; 0x01
     864:	88 32       	cpi	r24, 0x28	; 40
     866:	08 f0       	brcs	.+2      	; 0x86a <__stack+0xb>
     868:	57 c0       	rjmp	.+174    	; 0x918 <__stack+0xb9>
     86a:	c4 5b       	subi	r28, 0xB4	; 180
     86c:	d9 4f       	sbci	r29, 0xF9	; 249
     86e:	e8 81       	ld	r30, Y
     870:	f9 81       	ldd	r31, Y+1	; 0x01
     872:	cc 54       	subi	r28, 0x4C	; 76
     874:	d6 40       	sbci	r29, 0x06	; 6
     876:	82 81       	ldd	r24, Z+2	; 0x02
     878:	88 32       	cpi	r24, 0x28	; 40
     87a:	08 f0       	brcs	.+2      	; 0x87e <__stack+0x1f>
     87c:	4d c0       	rjmp	.+154    	; 0x918 <__stack+0xb9>
     87e:	80 81       	ld	r24, Z
     880:	88 32       	cpi	r24, 0x28	; 40
     882:	08 f0       	brcs	.+2      	; 0x886 <__stack+0x27>
     884:	49 c0       	rjmp	.+146    	; 0x918 <__stack+0xb9>
     886:	47 c0       	rjmp	.+142    	; 0x916 <__stack+0xb7>
     888:	9f 51       	subi	r25, 0x1F	; 31
     88a:	99 30       	cpi	r25, 0x09	; 9
     88c:	08 f0       	brcs	.+2      	; 0x890 <__stack+0x31>
     88e:	44 c0       	rjmp	.+136    	; 0x918 <__stack+0xb9>
     890:	c0 5b       	subi	r28, 0xB0	; 176
     892:	d9 4f       	sbci	r29, 0xF9	; 249
     894:	e8 81       	ld	r30, Y
     896:	f9 81       	ldd	r31, Y+1	; 0x01
     898:	c0 55       	subi	r28, 0x50	; 80
     89a:	d6 40       	sbci	r29, 0x06	; 6
     89c:	81 81       	ldd	r24, Z+1	; 0x01
     89e:	88 32       	cpi	r24, 0x28	; 40
     8a0:	d8 f5       	brcc	.+118    	; 0x918 <__stack+0xb9>
     8a2:	c2 5b       	subi	r28, 0xB2	; 178
     8a4:	d9 4f       	sbci	r29, 0xF9	; 249
     8a6:	e8 81       	ld	r30, Y
     8a8:	f9 81       	ldd	r31, Y+1	; 0x01
     8aa:	ce 54       	subi	r28, 0x4E	; 78
     8ac:	d6 40       	sbci	r29, 0x06	; 6
     8ae:	81 81       	ldd	r24, Z+1	; 0x01
     8b0:	88 32       	cpi	r24, 0x28	; 40
     8b2:	90 f5       	brcc	.+100    	; 0x918 <__stack+0xb9>
     8b4:	c4 5b       	subi	r28, 0xB4	; 180
     8b6:	d9 4f       	sbci	r29, 0xF9	; 249
     8b8:	e8 81       	ld	r30, Y
     8ba:	f9 81       	ldd	r31, Y+1	; 0x01
     8bc:	cc 54       	subi	r28, 0x4C	; 76
     8be:	d6 40       	sbci	r29, 0x06	; 6
     8c0:	82 81       	ldd	r24, Z+2	; 0x02
     8c2:	88 32       	cpi	r24, 0x28	; 40
     8c4:	48 f5       	brcc	.+82     	; 0x918 <__stack+0xb9>
     8c6:	80 81       	ld	r24, Z
     8c8:	88 32       	cpi	r24, 0x28	; 40
     8ca:	30 f5       	brcc	.+76     	; 0x918 <__stack+0xb9>
     8cc:	c0 5b       	subi	r28, 0xB0	; 176
     8ce:	d9 4f       	sbci	r29, 0xF9	; 249
     8d0:	e8 81       	ld	r30, Y
     8d2:	f9 81       	ldd	r31, Y+1	; 0x01
     8d4:	c0 55       	subi	r28, 0x50	; 80
     8d6:	d6 40       	sbci	r29, 0x06	; 6
     8d8:	82 81       	ldd	r24, Z+2	; 0x02
     8da:	88 32       	cpi	r24, 0x28	; 40
     8dc:	e8 f4       	brcc	.+58     	; 0x918 <__stack+0xb9>
     8de:	c2 5b       	subi	r28, 0xB2	; 178
     8e0:	d9 4f       	sbci	r29, 0xF9	; 249
     8e2:	a8 81       	ld	r26, Y
     8e4:	b9 81       	ldd	r27, Y+1	; 0x01
     8e6:	ce 54       	subi	r28, 0x4E	; 78
     8e8:	d6 40       	sbci	r29, 0x06	; 6
     8ea:	8c 91       	ld	r24, X
     8ec:	88 32       	cpi	r24, 0x28	; 40
     8ee:	a0 f4       	brcc	.+40     	; 0x918 <__stack+0xb9>
     8f0:	fd 01       	movw	r30, r26
     8f2:	82 81       	ldd	r24, Z+2	; 0x02
     8f4:	88 32       	cpi	r24, 0x28	; 40
     8f6:	80 f4       	brcc	.+32     	; 0x918 <__stack+0xb9>
     8f8:	c0 5b       	subi	r28, 0xB0	; 176
     8fa:	d9 4f       	sbci	r29, 0xF9	; 249
     8fc:	a8 81       	ld	r26, Y
     8fe:	b9 81       	ldd	r27, Y+1	; 0x01
     900:	c0 55       	subi	r28, 0x50	; 80
     902:	d6 40       	sbci	r29, 0x06	; 6
     904:	8c 91       	ld	r24, X
     906:	88 32       	cpi	r24, 0x28	; 40
     908:	38 f4       	brcc	.+14     	; 0x918 <__stack+0xb9>
     90a:	c4 5b       	subi	r28, 0xB4	; 180
     90c:	d9 4f       	sbci	r29, 0xF9	; 249
     90e:	e8 81       	ld	r30, Y
     910:	f9 81       	ldd	r31, Y+1	; 0x01
     912:	cc 54       	subi	r28, 0x4C	; 76
     914:	d6 40       	sbci	r29, 0x06	; 6
     916:	11 82       	std	Z+1, r1	; 0x01
     918:	cf 5b       	subi	r28, 0xBF	; 191
     91a:	d9 4f       	sbci	r29, 0xF9	; 249
     91c:	f8 81       	ld	r31, Y
     91e:	c1 54       	subi	r28, 0x41	; 65
     920:	d6 40       	sbci	r29, 0x06	; 6
     922:	ff 5f       	subi	r31, 0xFF	; 255
     924:	cf 5b       	subi	r28, 0xBF	; 191
     926:	d9 4f       	sbci	r29, 0xF9	; 249
     928:	f8 83       	st	Y, r31
     92a:	c1 54       	subi	r28, 0x41	; 65
     92c:	d6 40       	sbci	r29, 0x06	; 6
     92e:	c0 5b       	subi	r28, 0xB0	; 176
     930:	d9 4f       	sbci	r29, 0xF9	; 249
     932:	28 81       	ld	r18, Y
     934:	39 81       	ldd	r19, Y+1	; 0x01
     936:	c0 55       	subi	r28, 0x50	; 80
     938:	d6 40       	sbci	r29, 0x06	; 6
     93a:	28 5d       	subi	r18, 0xD8	; 216
     93c:	3f 4f       	sbci	r19, 0xFF	; 255
     93e:	c0 5b       	subi	r28, 0xB0	; 176
     940:	d9 4f       	sbci	r29, 0xF9	; 249
     942:	39 83       	std	Y+1, r19	; 0x01
     944:	28 83       	st	Y, r18
     946:	c0 55       	subi	r28, 0x50	; 80
     948:	d6 40       	sbci	r29, 0x06	; 6
     94a:	c2 5b       	subi	r28, 0xB2	; 178
     94c:	d9 4f       	sbci	r29, 0xF9	; 249
     94e:	88 81       	ld	r24, Y
     950:	99 81       	ldd	r25, Y+1	; 0x01
     952:	ce 54       	subi	r28, 0x4E	; 78
     954:	d6 40       	sbci	r29, 0x06	; 6
     956:	88 96       	adiw	r24, 0x28	; 40
     958:	c2 5b       	subi	r28, 0xB2	; 178
     95a:	d9 4f       	sbci	r29, 0xF9	; 249
     95c:	99 83       	std	Y+1, r25	; 0x01
     95e:	88 83       	st	Y, r24
     960:	ce 54       	subi	r28, 0x4E	; 78
     962:	d6 40       	sbci	r29, 0x06	; 6
     964:	c4 5b       	subi	r28, 0xB4	; 180
     966:	d9 4f       	sbci	r29, 0xF9	; 249
     968:	a8 81       	ld	r26, Y
     96a:	b9 81       	ldd	r27, Y+1	; 0x01
     96c:	cc 54       	subi	r28, 0x4C	; 76
     96e:	d6 40       	sbci	r29, 0x06	; 6
     970:	98 96       	adiw	r26, 0x28	; 40
     972:	c4 5b       	subi	r28, 0xB4	; 180
     974:	d9 4f       	sbci	r29, 0xF9	; 249
     976:	b9 83       	std	Y+1, r27	; 0x01
     978:	a8 83       	st	Y, r26
     97a:	cc 54       	subi	r28, 0x4C	; 76
     97c:	d6 40       	sbci	r29, 0x06	; 6
     97e:	f7 32       	cpi	r31, 0x27	; 39
     980:	09 f0       	breq	.+2      	; 0x984 <__stack+0x125>
     982:	97 cd       	rjmp	.-1234   	; 0x4b2 <main+0x3b6>
     984:	c8 5b       	subi	r28, 0xB8	; 184
     986:	d9 4f       	sbci	r29, 0xF9	; 249
     988:	e8 81       	ld	r30, Y
     98a:	f9 81       	ldd	r31, Y+1	; 0x01
     98c:	c8 54       	subi	r28, 0x48	; 72
     98e:	d6 40       	sbci	r29, 0x06	; 6
     990:	81 91       	ld	r24, Z+
     992:	c8 5b       	subi	r28, 0xB8	; 184
     994:	d9 4f       	sbci	r29, 0xF9	; 249
     996:	f9 83       	std	Y+1, r31	; 0x01
     998:	e8 83       	st	Y, r30
     99a:	c8 54       	subi	r28, 0x48	; 72
     99c:	d6 40       	sbci	r29, 0x06	; 6
     99e:	ca 5b       	subi	r28, 0xBA	; 186
     9a0:	d9 4f       	sbci	r29, 0xF9	; 249
     9a2:	a8 81       	ld	r26, Y
     9a4:	b9 81       	ldd	r27, Y+1	; 0x01
     9a6:	c6 54       	subi	r28, 0x46	; 70
     9a8:	d6 40       	sbci	r29, 0x06	; 6
     9aa:	8d 93       	st	X+, r24
     9ac:	ca 5b       	subi	r28, 0xBA	; 186
     9ae:	d9 4f       	sbci	r29, 0xF9	; 249
     9b0:	b9 83       	std	Y+1, r27	; 0x01
     9b2:	a8 83       	st	Y, r26
     9b4:	c6 54       	subi	r28, 0x46	; 70
     9b6:	d6 40       	sbci	r29, 0x06	; 6
     9b8:	e1 e0       	ldi	r30, 0x01	; 1
     9ba:	f0 e0       	ldi	r31, 0x00	; 0
     9bc:	ec 0f       	add	r30, r28
     9be:	fd 1f       	adc	r31, r29
     9c0:	ce 5b       	subi	r28, 0xBE	; 190
     9c2:	d9 4f       	sbci	r29, 0xF9	; 249
     9c4:	28 81       	ld	r18, Y
     9c6:	39 81       	ldd	r19, Y+1	; 0x01
     9c8:	c2 54       	subi	r28, 0x42	; 66
     9ca:	d6 40       	sbci	r29, 0x06	; 6
     9cc:	e2 0f       	add	r30, r18
     9ce:	f3 1f       	adc	r31, r19
     9d0:	cc 5b       	subi	r28, 0xBC	; 188
     9d2:	d9 4f       	sbci	r29, 0xF9	; 249
     9d4:	a8 81       	ld	r26, Y
     9d6:	b9 81       	ldd	r27, Y+1	; 0x01
     9d8:	c4 54       	subi	r28, 0x44	; 68
     9da:	d6 40       	sbci	r29, 0x06	; 6
     9dc:	8d 91       	ld	r24, X+
     9de:	cc 5b       	subi	r28, 0xBC	; 188
     9e0:	d9 4f       	sbci	r29, 0xF9	; 249
     9e2:	b9 83       	std	Y+1, r27	; 0x01
     9e4:	a8 83       	st	Y, r26
     9e6:	c4 54       	subi	r28, 0x44	; 68
     9e8:	d6 40       	sbci	r29, 0x06	; 6
     9ea:	80 83       	st	Z, r24
     9ec:	c6 5b       	subi	r28, 0xB6	; 182
     9ee:	d9 4f       	sbci	r29, 0xF9	; 249
     9f0:	e8 81       	ld	r30, Y
     9f2:	f9 81       	ldd	r31, Y+1	; 0x01
     9f4:	ca 54       	subi	r28, 0x4A	; 74
     9f6:	d6 40       	sbci	r29, 0x06	; 6
     9f8:	31 96       	adiw	r30, 0x01	; 1
     9fa:	c6 5b       	subi	r28, 0xB6	; 182
     9fc:	d9 4f       	sbci	r29, 0xF9	; 249
     9fe:	f9 83       	std	Y+1, r31	; 0x01
     a00:	e8 83       	st	Y, r30
     a02:	ca 54       	subi	r28, 0x4A	; 74
     a04:	d6 40       	sbci	r29, 0x06	; 6
     a06:	2f 5f       	subi	r18, 0xFF	; 255
     a08:	3f 4f       	sbci	r19, 0xFF	; 255
     a0a:	ce 5b       	subi	r28, 0xBE	; 190
     a0c:	d9 4f       	sbci	r29, 0xF9	; 249
     a0e:	39 83       	std	Y+1, r19	; 0x01
     a10:	28 83       	st	Y, r18
     a12:	c2 54       	subi	r28, 0x42	; 66
     a14:	d6 40       	sbci	r29, 0x06	; 6
     a16:	b6 97       	sbiw	r30, 0x26	; 38
     a18:	09 f0       	breq	.+2      	; 0xa1c <__stack+0x1bd>
     a1a:	b7 c2       	rjmp	.+1390   	; 0xf8a <__stack+0x72b>
     a1c:	9e 01       	movw	r18, r28
     a1e:	29 5d       	subi	r18, 0xD9	; 217
     a20:	3f 4f       	sbci	r19, 0xFF	; 255
     a22:	de 01       	movw	r26, r28
     a24:	11 96       	adiw	r26, 0x01	; 1
     a26:	f9 01       	movw	r30, r18
     a28:	80 81       	ld	r24, Z
     a2a:	81 83       	std	Z+1, r24	; 0x01
     a2c:	fd 01       	movw	r30, r26
     a2e:	81 81       	ldd	r24, Z+1	; 0x01
     a30:	8c 93       	st	X, r24
     a32:	28 5d       	subi	r18, 0xD8	; 216
     a34:	3f 4f       	sbci	r19, 0xFF	; 255
     a36:	98 96       	adiw	r26, 0x28	; 40
     a38:	cd 59       	subi	r28, 0x9D	; 157
     a3a:	d9 4f       	sbci	r29, 0xF9	; 249
     a3c:	88 81       	ld	r24, Y
     a3e:	99 81       	ldd	r25, Y+1	; 0x01
     a40:	c3 56       	subi	r28, 0x63	; 99
     a42:	d6 40       	sbci	r29, 0x06	; 6
     a44:	28 17       	cp	r18, r24
     a46:	39 07       	cpc	r19, r25
     a48:	09 f4       	brne	.+2      	; 0xa4c <__stack+0x1ed>
     a4a:	dc c2       	rjmp	.+1464   	; 0x1004 <__stack+0x7a5>
     a4c:	ec cf       	rjmp	.-40     	; 0xa26 <__stack+0x1c7>
     a4e:	80 81       	ld	r24, Z
     a50:	68 2f       	mov	r22, r24
     a52:	70 e0       	ldi	r23, 0x00	; 0
     a54:	cd 01       	movw	r24, r26
     a56:	02 96       	adiw	r24, 0x02	; 2
     a58:	86 17       	cp	r24, r22
     a5a:	97 07       	cpc	r25, r23
     a5c:	58 f4       	brcc	.+22     	; 0xa74 <__stack+0x215>
     a5e:	c0 5a       	subi	r28, 0xA0	; 160
     a60:	d9 4f       	sbci	r29, 0xF9	; 249
     a62:	28 83       	st	Y, r18
     a64:	c0 56       	subi	r28, 0x60	; 96
     a66:	d6 40       	sbci	r29, 0x06	; 6
     a68:	c1 5a       	subi	r28, 0xA1	; 161
     a6a:	d9 4f       	sbci	r29, 0xF9	; 249
     a6c:	18 83       	st	Y, r17
     a6e:	cf 55       	subi	r28, 0x5F	; 95
     a70:	d6 40       	sbci	r29, 0x06	; 6
     a72:	db 01       	movw	r26, r22
     a74:	2f 5f       	subi	r18, 0xFF	; 255
     a76:	3f 4f       	sbci	r19, 0xFF	; 255
     a78:	b8 96       	adiw	r30, 0x28	; 40
     a7a:	27 32       	cpi	r18, 0x27	; 39
     a7c:	31 05       	cpc	r19, r1
     a7e:	39 f7       	brne	.-50     	; 0xa4e <__stack+0x1ef>
     a80:	4f 5f       	subi	r20, 0xFF	; 255
     a82:	5f 4f       	sbci	r21, 0xFF	; 255
     a84:	47 32       	cpi	r20, 0x27	; 39
     a86:	51 05       	cpc	r21, r1
     a88:	09 f0       	breq	.+2      	; 0xa8c <__stack+0x22d>
     a8a:	c0 c2       	rjmp	.+1408   	; 0x100c <__stack+0x7ad>
     a8c:	c1 5a       	subi	r28, 0xA1	; 161
     a8e:	d9 4f       	sbci	r29, 0xF9	; 249
     a90:	b8 81       	ld	r27, Y
     a92:	cf 55       	subi	r28, 0x5F	; 95
     a94:	d6 40       	sbci	r29, 0x06	; 6
     a96:	ab 2f       	mov	r26, r27
     a98:	b0 e0       	ldi	r27, 0x00	; 0
     a9a:	ce 5a       	subi	r28, 0xAE	; 174
     a9c:	d9 4f       	sbci	r29, 0xF9	; 249
     a9e:	b9 83       	std	Y+1, r27	; 0x01
     aa0:	a8 83       	st	Y, r26
     aa2:	c2 55       	subi	r28, 0x52	; 82
     aa4:	d6 40       	sbci	r29, 0x06	; 6
     aa6:	61 e0       	ldi	r22, 0x01	; 1
     aa8:	46 2e       	mov	r4, r22
     aaa:	51 2c       	mov	r5, r1
     aac:	4c 0e       	add	r4, r28
     aae:	5d 1e       	adc	r5, r29
     ab0:	4a 0e       	add	r4, r26
     ab2:	5b 1e       	adc	r5, r27
     ab4:	c4 5a       	subi	r28, 0xA4	; 164
     ab6:	d9 4f       	sbci	r29, 0xF9	; 249
     ab8:	19 82       	std	Y+1, r1	; 0x01
     aba:	18 82       	st	Y, r1
     abc:	cc 55       	subi	r28, 0x5C	; 92
     abe:	d6 40       	sbci	r29, 0x06	; 6
     ac0:	0f 2e       	mov	r0, r31
     ac2:	f0 e0       	ldi	r31, 0x00	; 0
     ac4:	6f 2e       	mov	r6, r31
     ac6:	f0 e0       	ldi	r31, 0x00	; 0
     ac8:	7f 2e       	mov	r7, r31
     aca:	f0 e0       	ldi	r31, 0x00	; 0
     acc:	8f 2e       	mov	r8, r31
     ace:	f0 e0       	ldi	r31, 0x00	; 0
     ad0:	9f 2e       	mov	r9, r31
     ad2:	f0 2d       	mov	r31, r0
     ad4:	64 01       	movw	r12, r8
     ad6:	53 01       	movw	r10, r6
     ad8:	51 e0       	ldi	r21, 0x01	; 1
     ada:	25 2e       	mov	r2, r21
     adc:	31 2c       	mov	r3, r1
     ade:	f2 01       	movw	r30, r4
     ae0:	f0 80       	ld	r15, Z
     ae2:	0f 2d       	mov	r16, r15
     ae4:	10 e0       	ldi	r17, 0x00	; 0
     ae6:	b8 01       	movw	r22, r16
     ae8:	88 27       	eor	r24, r24
     aea:	77 fd       	sbrc	r23, 7
     aec:	80 95       	com	r24
     aee:	98 2f       	mov	r25, r24
     af0:	0e 94 ed 0f 	call	0x1fda	; 0x1fda <__floatsisf>
     af4:	9b 01       	movw	r18, r22
     af6:	ac 01       	movw	r20, r24
     af8:	c6 01       	movw	r24, r12
     afa:	b5 01       	movw	r22, r10
     afc:	0e 94 af 0e 	call	0x1d5e	; 0x1d5e <__addsf3>
     b00:	5b 01       	movw	r10, r22
     b02:	6c 01       	movw	r12, r24
     b04:	20 9e       	mul	r2, r16
     b06:	b0 01       	movw	r22, r0
     b08:	21 9e       	mul	r2, r17
     b0a:	70 0d       	add	r23, r0
     b0c:	30 9e       	mul	r3, r16
     b0e:	70 0d       	add	r23, r0
     b10:	11 24       	eor	r1, r1
     b12:	88 27       	eor	r24, r24
     b14:	77 fd       	sbrc	r23, 7
     b16:	80 95       	com	r24
     b18:	98 2f       	mov	r25, r24
     b1a:	0e 94 ed 0f 	call	0x1fda	; 0x1fda <__floatsisf>
     b1e:	9b 01       	movw	r18, r22
     b20:	ac 01       	movw	r20, r24
     b22:	c4 01       	movw	r24, r8
     b24:	b3 01       	movw	r22, r6
     b26:	0e 94 af 0e 	call	0x1d5e	; 0x1d5e <__addsf3>
     b2a:	3b 01       	movw	r6, r22
     b2c:	4c 01       	movw	r8, r24
     b2e:	fa e0       	ldi	r31, 0x0A	; 10
     b30:	ff 15       	cp	r31, r15
     b32:	70 f4       	brcc	.+28     	; 0xb50 <__stack+0x2f1>
     b34:	c4 5a       	subi	r28, 0xA4	; 164
     b36:	d9 4f       	sbci	r29, 0xF9	; 249
     b38:	28 81       	ld	r18, Y
     b3a:	39 81       	ldd	r19, Y+1	; 0x01
     b3c:	cc 55       	subi	r28, 0x5C	; 92
     b3e:	d6 40       	sbci	r29, 0x06	; 6
     b40:	2f 5f       	subi	r18, 0xFF	; 255
     b42:	3f 4f       	sbci	r19, 0xFF	; 255
     b44:	c4 5a       	subi	r28, 0xA4	; 164
     b46:	d9 4f       	sbci	r29, 0xF9	; 249
     b48:	39 83       	std	Y+1, r19	; 0x01
     b4a:	28 83       	st	Y, r18
     b4c:	cc 55       	subi	r28, 0x5C	; 92
     b4e:	d6 40       	sbci	r29, 0x06	; 6
     b50:	88 e2       	ldi	r24, 0x28	; 40
     b52:	90 e0       	ldi	r25, 0x00	; 0
     b54:	48 0e       	add	r4, r24
     b56:	59 1e       	adc	r5, r25
     b58:	08 94       	sec
     b5a:	21 1c       	adc	r2, r1
     b5c:	31 1c       	adc	r3, r1
     b5e:	99 e2       	ldi	r25, 0x29	; 41
     b60:	29 16       	cp	r2, r25
     b62:	31 04       	cpc	r3, r1
     b64:	09 f0       	breq	.+2      	; 0xb68 <__stack+0x309>
     b66:	bb cf       	rjmp	.-138    	; 0xade <__stack+0x27f>
     b68:	a6 01       	movw	r20, r12
     b6a:	95 01       	movw	r18, r10
     b6c:	c4 01       	movw	r24, r8
     b6e:	b3 01       	movw	r22, r6
     b70:	0e 94 52 0f 	call	0x1ea4	; 0x1ea4 <__divsf3>
     b74:	20 e0       	ldi	r18, 0x00	; 0
     b76:	30 e0       	ldi	r19, 0x00	; 0
     b78:	40 e2       	ldi	r20, 0x20	; 32
     b7a:	51 e4       	ldi	r21, 0x41	; 65
     b7c:	0e 94 fd 10 	call	0x21fa	; 0x21fa <__mulsf3>
     b80:	0e 94 ba 0f 	call	0x1f74	; 0x1f74 <__fixsfsi>
     b84:	cf 59       	subi	r28, 0x9F	; 159
     b86:	d9 4f       	sbci	r29, 0xF9	; 249
     b88:	79 83       	std	Y+1, r23	; 0x01
     b8a:	68 83       	st	Y, r22
     b8c:	c1 56       	subi	r28, 0x61	; 97
     b8e:	d6 40       	sbci	r29, 0x06	; 6
     b90:	c0 5a       	subi	r28, 0xA0	; 160
     b92:	d9 4f       	sbci	r29, 0xF9	; 249
     b94:	b8 81       	ld	r27, Y
     b96:	c0 56       	subi	r28, 0x60	; 96
     b98:	d6 40       	sbci	r29, 0x06	; 6
     b9a:	ab 2f       	mov	r26, r27
     b9c:	b0 e0       	ldi	r27, 0x00	; 0
     b9e:	cc 5a       	subi	r28, 0xAC	; 172
     ba0:	d9 4f       	sbci	r29, 0xF9	; 249
     ba2:	b9 83       	std	Y+1, r27	; 0x01
     ba4:	a8 83       	st	Y, r26
     ba6:	c4 55       	subi	r28, 0x54	; 84
     ba8:	d6 40       	sbci	r29, 0x06	; 6
     baa:	88 e2       	ldi	r24, 0x28	; 40
     bac:	90 e0       	ldi	r25, 0x00	; 0
     bae:	a8 9f       	mul	r26, r24
     bb0:	60 01       	movw	r12, r0
     bb2:	a9 9f       	mul	r26, r25
     bb4:	d0 0c       	add	r13, r0
     bb6:	b8 9f       	mul	r27, r24
     bb8:	d0 0c       	add	r13, r0
     bba:	11 24       	eor	r1, r1
     bbc:	e1 e0       	ldi	r30, 0x01	; 1
     bbe:	f0 e0       	ldi	r31, 0x00	; 0
     bc0:	ec 0f       	add	r30, r28
     bc2:	fd 1f       	adc	r31, r29
     bc4:	ce 0e       	add	r12, r30
     bc6:	df 1e       	adc	r13, r31
     bc8:	0f 2e       	mov	r0, r31
     bca:	f0 e0       	ldi	r31, 0x00	; 0
     bcc:	4f 2e       	mov	r4, r31
     bce:	f0 e0       	ldi	r31, 0x00	; 0
     bd0:	5f 2e       	mov	r5, r31
     bd2:	f0 e0       	ldi	r31, 0x00	; 0
     bd4:	6f 2e       	mov	r6, r31
     bd6:	f0 e0       	ldi	r31, 0x00	; 0
     bd8:	7f 2e       	mov	r7, r31
     bda:	f0 2d       	mov	r31, r0
     bdc:	53 01       	movw	r10, r6
     bde:	42 01       	movw	r8, r4
     be0:	41 e0       	ldi	r20, 0x01	; 1
     be2:	24 2e       	mov	r2, r20
     be4:	31 2c       	mov	r3, r1
     be6:	d6 01       	movw	r26, r12
     be8:	fc 90       	ld	r15, X
     bea:	0f 2d       	mov	r16, r15
     bec:	10 e0       	ldi	r17, 0x00	; 0
     bee:	b8 01       	movw	r22, r16
     bf0:	88 27       	eor	r24, r24
     bf2:	77 fd       	sbrc	r23, 7
     bf4:	80 95       	com	r24
     bf6:	98 2f       	mov	r25, r24
     bf8:	0e 94 ed 0f 	call	0x1fda	; 0x1fda <__floatsisf>
     bfc:	9b 01       	movw	r18, r22
     bfe:	ac 01       	movw	r20, r24
     c00:	c5 01       	movw	r24, r10
     c02:	b4 01       	movw	r22, r8
     c04:	0e 94 af 0e 	call	0x1d5e	; 0x1d5e <__addsf3>
     c08:	4b 01       	movw	r8, r22
     c0a:	5c 01       	movw	r10, r24
     c0c:	20 9e       	mul	r2, r16
     c0e:	b0 01       	movw	r22, r0
     c10:	21 9e       	mul	r2, r17
     c12:	70 0d       	add	r23, r0
     c14:	30 9e       	mul	r3, r16
     c16:	70 0d       	add	r23, r0
     c18:	11 24       	eor	r1, r1
     c1a:	88 27       	eor	r24, r24
     c1c:	77 fd       	sbrc	r23, 7
     c1e:	80 95       	com	r24
     c20:	98 2f       	mov	r25, r24
     c22:	0e 94 ed 0f 	call	0x1fda	; 0x1fda <__floatsisf>
     c26:	9b 01       	movw	r18, r22
     c28:	ac 01       	movw	r20, r24
     c2a:	c3 01       	movw	r24, r6
     c2c:	b2 01       	movw	r22, r4
     c2e:	0e 94 af 0e 	call	0x1d5e	; 0x1d5e <__addsf3>
     c32:	2b 01       	movw	r4, r22
     c34:	3c 01       	movw	r6, r24
     c36:	ba e0       	ldi	r27, 0x0A	; 10
     c38:	bf 15       	cp	r27, r15
     c3a:	68 f4       	brcc	.+26     	; 0xc56 <__stack+0x3f7>
     c3c:	c4 5a       	subi	r28, 0xA4	; 164
     c3e:	d9 4f       	sbci	r29, 0xF9	; 249
     c40:	e8 81       	ld	r30, Y
     c42:	f9 81       	ldd	r31, Y+1	; 0x01
     c44:	cc 55       	subi	r28, 0x5C	; 92
     c46:	d6 40       	sbci	r29, 0x06	; 6
     c48:	31 96       	adiw	r30, 0x01	; 1
     c4a:	c4 5a       	subi	r28, 0xA4	; 164
     c4c:	d9 4f       	sbci	r29, 0xF9	; 249
     c4e:	f9 83       	std	Y+1, r31	; 0x01
     c50:	e8 83       	st	Y, r30
     c52:	cc 55       	subi	r28, 0x5C	; 92
     c54:	d6 40       	sbci	r29, 0x06	; 6
     c56:	08 94       	sec
     c58:	c1 1c       	adc	r12, r1
     c5a:	d1 1c       	adc	r13, r1
     c5c:	08 94       	sec
     c5e:	21 1c       	adc	r2, r1
     c60:	31 1c       	adc	r3, r1
     c62:	f9 e2       	ldi	r31, 0x29	; 41
     c64:	2f 16       	cp	r2, r31
     c66:	31 04       	cpc	r3, r1
     c68:	09 f0       	breq	.+2      	; 0xc6c <__stack+0x40d>
     c6a:	bd cf       	rjmp	.-134    	; 0xbe6 <__stack+0x387>
     c6c:	a5 01       	movw	r20, r10
     c6e:	94 01       	movw	r18, r8
     c70:	c3 01       	movw	r24, r6
     c72:	b2 01       	movw	r22, r4
     c74:	0e 94 52 0f 	call	0x1ea4	; 0x1ea4 <__divsf3>
     c78:	20 e0       	ldi	r18, 0x00	; 0
     c7a:	30 e0       	ldi	r19, 0x00	; 0
     c7c:	40 e2       	ldi	r20, 0x20	; 32
     c7e:	51 e4       	ldi	r21, 0x41	; 65
     c80:	0e 94 fd 10 	call	0x21fa	; 0x21fa <__mulsf3>
     c84:	0e 94 ba 0f 	call	0x1f74	; 0x1f74 <__fixsfsi>
     c88:	8b 01       	movw	r16, r22
     c8a:	9c 01       	movw	r18, r24
     c8c:	c4 5a       	subi	r28, 0xA4	; 164
     c8e:	d9 4f       	sbci	r29, 0xF9	; 249
     c90:	88 81       	ld	r24, Y
     c92:	99 81       	ldd	r25, Y+1	; 0x01
     c94:	cc 55       	subi	r28, 0x5C	; 92
     c96:	d6 40       	sbci	r29, 0x06	; 6
     c98:	88 0f       	add	r24, r24
     c9a:	99 1f       	adc	r25, r25
     c9c:	88 0f       	add	r24, r24
     c9e:	99 1f       	adc	r25, r25
     ca0:	cf 59       	subi	r28, 0x9F	; 159
     ca2:	d9 4f       	sbci	r29, 0xF9	; 249
     ca4:	e8 81       	ld	r30, Y
     ca6:	f9 81       	ldd	r31, Y+1	; 0x01
     ca8:	c1 56       	subi	r28, 0x61	; 97
     caa:	d6 40       	sbci	r29, 0x06	; 6
     cac:	f6 95       	lsr	r31
     cae:	e7 95       	ror	r30
     cb0:	16 95       	lsr	r17
     cb2:	07 95       	ror	r16
     cb4:	c6 5a       	subi	r28, 0xA6	; 166
     cb6:	d9 4f       	sbci	r29, 0xF9	; 249
     cb8:	28 81       	ld	r18, Y
     cba:	39 81       	ldd	r19, Y+1	; 0x01
     cbc:	ca 55       	subi	r28, 0x5A	; 90
     cbe:	d6 40       	sbci	r29, 0x06	; 6
     cc0:	28 0f       	add	r18, r24
     cc2:	39 1f       	adc	r19, r25
     cc4:	36 95       	lsr	r19
     cc6:	27 95       	ror	r18
     cc8:	c6 5a       	subi	r28, 0xA6	; 166
     cca:	d9 4f       	sbci	r29, 0xF9	; 249
     ccc:	39 83       	std	Y+1, r19	; 0x01
     cce:	28 83       	st	Y, r18
     cd0:	ca 55       	subi	r28, 0x5A	; 90
     cd2:	d6 40       	sbci	r29, 0x06	; 6
     cd4:	c8 5a       	subi	r28, 0xA8	; 168
     cd6:	d9 4f       	sbci	r29, 0xF9	; 249
     cd8:	a8 81       	ld	r26, Y
     cda:	b9 81       	ldd	r27, Y+1	; 0x01
     cdc:	c8 55       	subi	r28, 0x58	; 88
     cde:	d6 40       	sbci	r29, 0x06	; 6
     ce0:	ae 0f       	add	r26, r30
     ce2:	bf 1f       	adc	r27, r31
     ce4:	b6 95       	lsr	r27
     ce6:	a7 95       	ror	r26
     ce8:	c8 5a       	subi	r28, 0xA8	; 168
     cea:	d9 4f       	sbci	r29, 0xF9	; 249
     cec:	b9 83       	std	Y+1, r27	; 0x01
     cee:	a8 83       	st	Y, r26
     cf0:	c8 55       	subi	r28, 0x58	; 88
     cf2:	d6 40       	sbci	r29, 0x06	; 6
     cf4:	ca 5a       	subi	r28, 0xAA	; 170
     cf6:	d9 4f       	sbci	r29, 0xF9	; 249
     cf8:	28 81       	ld	r18, Y
     cfa:	39 81       	ldd	r19, Y+1	; 0x01
     cfc:	c6 55       	subi	r28, 0x56	; 86
     cfe:	d6 40       	sbci	r29, 0x06	; 6
     d00:	20 0f       	add	r18, r16
     d02:	31 1f       	adc	r19, r17
     d04:	36 95       	lsr	r19
     d06:	27 95       	ror	r18
     d08:	ca 5a       	subi	r28, 0xAA	; 170
     d0a:	d9 4f       	sbci	r29, 0xF9	; 249
     d0c:	39 83       	std	Y+1, r19	; 0x01
     d0e:	28 83       	st	Y, r18
     d10:	c6 55       	subi	r28, 0x56	; 86
     d12:	d6 40       	sbci	r29, 0x06	; 6
     d14:	c6 5a       	subi	r28, 0xA6	; 166
     d16:	d9 4f       	sbci	r29, 0xF9	; 249
     d18:	a8 81       	ld	r26, Y
     d1a:	b9 81       	ldd	r27, Y+1	; 0x01
     d1c:	ca 55       	subi	r28, 0x5A	; 90
     d1e:	d6 40       	sbci	r29, 0x06	; 6
     d20:	8a 0f       	add	r24, r26
     d22:	9b 1f       	adc	r25, r27
     d24:	96 95       	lsr	r25
     d26:	87 95       	ror	r24
     d28:	6a e0       	ldi	r22, 0x0A	; 10
     d2a:	70 e0       	ldi	r23, 0x00	; 0
     d2c:	0e 94 d4 11 	call	0x23a8	; 0x23a8 <__udivmodhi4>
     d30:	6b 01       	movw	r12, r22
     d32:	cb 01       	movw	r24, r22
     d34:	43 e0       	ldi	r20, 0x03	; 3
     d36:	88 0f       	add	r24, r24
     d38:	99 1f       	adc	r25, r25
     d3a:	4a 95       	dec	r20
     d3c:	e1 f7       	brne	.-8      	; 0xd36 <__stack+0x4d7>
     d3e:	cc 0c       	add	r12, r12
     d40:	dd 1c       	adc	r13, r13
     d42:	c8 0e       	add	r12, r24
     d44:	d9 1e       	adc	r13, r25
     d46:	c8 5a       	subi	r28, 0xA8	; 168
     d48:	d9 4f       	sbci	r29, 0xF9	; 249
     d4a:	28 81       	ld	r18, Y
     d4c:	39 81       	ldd	r19, Y+1	; 0x01
     d4e:	c8 55       	subi	r28, 0x58	; 88
     d50:	d6 40       	sbci	r29, 0x06	; 6
     d52:	e2 0f       	add	r30, r18
     d54:	f3 1f       	adc	r31, r19
     d56:	cf 01       	movw	r24, r30
     d58:	96 95       	lsr	r25
     d5a:	87 95       	ror	r24
     d5c:	6a e0       	ldi	r22, 0x0A	; 10
     d5e:	70 e0       	ldi	r23, 0x00	; 0
     d60:	0e 94 d4 11 	call	0x23a8	; 0x23a8 <__udivmodhi4>
     d64:	7b 01       	movw	r14, r22
     d66:	cb 01       	movw	r24, r22
     d68:	b3 e0       	ldi	r27, 0x03	; 3
     d6a:	88 0f       	add	r24, r24
     d6c:	99 1f       	adc	r25, r25
     d6e:	ba 95       	dec	r27
     d70:	e1 f7       	brne	.-8      	; 0xd6a <__stack+0x50b>
     d72:	ee 0c       	add	r14, r14
     d74:	ff 1c       	adc	r15, r15
     d76:	e8 0e       	add	r14, r24
     d78:	f9 1e       	adc	r15, r25
     d7a:	ca 5a       	subi	r28, 0xAA	; 170
     d7c:	d9 4f       	sbci	r29, 0xF9	; 249
     d7e:	88 81       	ld	r24, Y
     d80:	99 81       	ldd	r25, Y+1	; 0x01
     d82:	c6 55       	subi	r28, 0x56	; 86
     d84:	d6 40       	sbci	r29, 0x06	; 6
     d86:	08 0f       	add	r16, r24
     d88:	19 1f       	adc	r17, r25
     d8a:	c8 01       	movw	r24, r16
     d8c:	96 95       	lsr	r25
     d8e:	87 95       	ror	r24
     d90:	6a e0       	ldi	r22, 0x0A	; 10
     d92:	70 e0       	ldi	r23, 0x00	; 0
     d94:	0e 94 d4 11 	call	0x23a8	; 0x23a8 <__udivmodhi4>
     d98:	8b 01       	movw	r16, r22
     d9a:	cb 01       	movw	r24, r22
     d9c:	e3 e0       	ldi	r30, 0x03	; 3
     d9e:	88 0f       	add	r24, r24
     da0:	99 1f       	adc	r25, r25
     da2:	ea 95       	dec	r30
     da4:	e1 f7       	brne	.-8      	; 0xd9e <__stack+0x53f>
     da6:	00 0f       	add	r16, r16
     da8:	11 1f       	adc	r17, r17
     daa:	08 0f       	add	r16, r24
     dac:	19 1f       	adc	r17, r25
     dae:	60 e0       	ldi	r22, 0x00	; 0
     db0:	81 e0       	ldi	r24, 0x01	; 1
     db2:	0e 94 5c 09 	call	0x12b8	; 0x12b8 <LCDGotoXY>
     db6:	63 e0       	ldi	r22, 0x03	; 3
     db8:	70 e0       	ldi	r23, 0x00	; 0
     dba:	c6 01       	movw	r24, r12
     dbc:	0e 94 fb 08 	call	0x11f6	; 0x11f6 <LCDWriteInt>
     dc0:	60 e0       	ldi	r22, 0x00	; 0
     dc2:	85 e0       	ldi	r24, 0x05	; 5
     dc4:	0e 94 5c 09 	call	0x12b8	; 0x12b8 <LCDGotoXY>
     dc8:	63 e0       	ldi	r22, 0x03	; 3
     dca:	70 e0       	ldi	r23, 0x00	; 0
     dcc:	cc 5a       	subi	r28, 0xAC	; 172
     dce:	d9 4f       	sbci	r29, 0xF9	; 249
     dd0:	88 81       	ld	r24, Y
     dd2:	99 81       	ldd	r25, Y+1	; 0x01
     dd4:	c4 55       	subi	r28, 0x54	; 84
     dd6:	d6 40       	sbci	r29, 0x06	; 6
     dd8:	0e 94 fb 08 	call	0x11f6	; 0x11f6 <LCDWriteInt>
     ddc:	60 e0       	ldi	r22, 0x00	; 0
     dde:	89 e0       	ldi	r24, 0x09	; 9
     de0:	0e 94 5c 09 	call	0x12b8	; 0x12b8 <LCDGotoXY>
     de4:	63 e0       	ldi	r22, 0x03	; 3
     de6:	70 e0       	ldi	r23, 0x00	; 0
     de8:	ce 5a       	subi	r28, 0xAE	; 174
     dea:	d9 4f       	sbci	r29, 0xF9	; 249
     dec:	88 81       	ld	r24, Y
     dee:	99 81       	ldd	r25, Y+1	; 0x01
     df0:	c2 55       	subi	r28, 0x52	; 82
     df2:	d6 40       	sbci	r29, 0x06	; 6
     df4:	0e 94 fb 08 	call	0x11f6	; 0x11f6 <LCDWriteInt>
     df8:	60 e0       	ldi	r22, 0x00	; 0
     dfa:	8d e0       	ldi	r24, 0x0D	; 13
     dfc:	0e 94 5c 09 	call	0x12b8	; 0x12b8 <LCDGotoXY>
     e00:	cb 5c       	subi	r28, 0xCB	; 203
     e02:	dc 4f       	sbci	r29, 0xFC	; 252
     e04:	88 81       	ld	r24, Y
     e06:	c5 53       	subi	r28, 0x35	; 53
     e08:	d3 40       	sbci	r29, 0x03	; 3
     e0a:	63 e0       	ldi	r22, 0x03	; 3
     e0c:	70 e0       	ldi	r23, 0x00	; 0
     e0e:	90 e0       	ldi	r25, 0x00	; 0
     e10:	0e 94 fb 08 	call	0x11f6	; 0x11f6 <LCDWriteInt>
     e14:	61 e0       	ldi	r22, 0x01	; 1
     e16:	81 e0       	ldi	r24, 0x01	; 1
     e18:	0e 94 5c 09 	call	0x12b8	; 0x12b8 <LCDGotoXY>
     e1c:	63 e0       	ldi	r22, 0x03	; 3
     e1e:	70 e0       	ldi	r23, 0x00	; 0
     e20:	c2 5a       	subi	r28, 0xA2	; 162
     e22:	d9 4f       	sbci	r29, 0xF9	; 249
     e24:	a8 81       	ld	r26, Y
     e26:	ce 55       	subi	r28, 0x5E	; 94
     e28:	d6 40       	sbci	r29, 0x06	; 6
     e2a:	8a 2f       	mov	r24, r26
     e2c:	90 e0       	ldi	r25, 0x00	; 0
     e2e:	0e 94 fb 08 	call	0x11f6	; 0x11f6 <LCDWriteInt>
     e32:	61 e0       	ldi	r22, 0x01	; 1
     e34:	85 e0       	ldi	r24, 0x05	; 5
     e36:	0e 94 5c 09 	call	0x12b8	; 0x12b8 <LCDGotoXY>
     e3a:	63 e0       	ldi	r22, 0x03	; 3
     e3c:	70 e0       	ldi	r23, 0x00	; 0
     e3e:	c7 01       	movw	r24, r14
     e40:	0e 94 fb 08 	call	0x11f6	; 0x11f6 <LCDWriteInt>
     e44:	61 e0       	ldi	r22, 0x01	; 1
     e46:	89 e0       	ldi	r24, 0x09	; 9
     e48:	0e 94 5c 09 	call	0x12b8	; 0x12b8 <LCDGotoXY>
     e4c:	63 e0       	ldi	r22, 0x03	; 3
     e4e:	70 e0       	ldi	r23, 0x00	; 0
     e50:	c8 01       	movw	r24, r16
     e52:	0e 94 fb 08 	call	0x11f6	; 0x11f6 <LCDWriteInt>
     e56:	61 e0       	ldi	r22, 0x01	; 1
     e58:	8d e0       	ldi	r24, 0x0D	; 13
     e5a:	0e 94 5c 09 	call	0x12b8	; 0x12b8 <LCDGotoXY>
     e5e:	83 b3       	in	r24, 0x13	; 19
     e60:	63 e0       	ldi	r22, 0x03	; 3
     e62:	70 e0       	ldi	r23, 0x00	; 0
     e64:	90 e0       	ldi	r25, 0x00	; 0
     e66:	0e 94 fb 08 	call	0x11f6	; 0x11f6 <LCDWriteInt>
     e6a:	c7 01       	movw	r24, r14
     e6c:	05 96       	adiw	r24, 0x05	; 5
     e6e:	0e 94 36 08 	call	0x106c	; 0x106c <Timer_1A>
     e72:	c8 01       	movw	r24, r16
     e74:	05 96       	adiw	r24, 0x05	; 5
     e76:	0e 94 46 08 	call	0x108c	; 0x108c <Timer_1B>
     e7a:	c6 01       	movw	r24, r12
     e7c:	05 96       	adiw	r24, 0x05	; 5
     e7e:	0e 94 53 08 	call	0x10a6	; 0x10a6 <Timer_0>
     e82:	80 c9       	rjmp	.-3328   	; 0x184 <main+0x88>
     e84:	00 e0       	ldi	r16, 0x00	; 0
     e86:	10 e0       	ldi	r17, 0x00	; 0
     e88:	61 e0       	ldi	r22, 0x01	; 1
     e8a:	86 2e       	mov	r8, r22
     e8c:	91 2c       	mov	r9, r1
     e8e:	8c 0e       	add	r8, r28
     e90:	9d 1e       	adc	r9, r29
     e92:	80 0e       	add	r8, r16
     e94:	91 1e       	adc	r9, r17
     e96:	08 5d       	subi	r16, 0xD8	; 216
     e98:	1f 4f       	sbci	r17, 0xFF	; 255
     e9a:	51 e0       	ldi	r21, 0x01	; 1
     e9c:	a5 2e       	mov	r10, r21
     e9e:	b1 2c       	mov	r11, r1
     ea0:	ac 0e       	add	r10, r28
     ea2:	bd 1e       	adc	r11, r29
     ea4:	a0 0e       	add	r10, r16
     ea6:	b1 1e       	adc	r11, r17
     ea8:	08 5d       	subi	r16, 0xD8	; 216
     eaa:	1f 4f       	sbci	r17, 0xFF	; 255
     eac:	41 e0       	ldi	r20, 0x01	; 1
     eae:	c4 2e       	mov	r12, r20
     eb0:	d1 2c       	mov	r13, r1
     eb2:	cc 0e       	add	r12, r28
     eb4:	dd 1e       	adc	r13, r29
     eb6:	c0 0e       	add	r12, r16
     eb8:	d1 1e       	adc	r13, r17
     eba:	08 5d       	subi	r16, 0xD8	; 216
     ebc:	1f 4f       	sbci	r17, 0xFF	; 255
     ebe:	31 e0       	ldi	r19, 0x01	; 1
     ec0:	e3 2e       	mov	r14, r19
     ec2:	f1 2c       	mov	r15, r1
     ec4:	ec 0e       	add	r14, r28
     ec6:	fd 1e       	adc	r15, r29
     ec8:	e0 0e       	add	r14, r16
     eca:	f1 1e       	adc	r15, r17
     ecc:	08 57       	subi	r16, 0x78	; 120
     ece:	10 40       	sbci	r17, 0x00	; 0
     ed0:	77 24       	eor	r7, r7
     ed2:	d4 c9       	rjmp	.-3160   	; 0x27c <main+0x180>
     ed4:	cc 24       	eor	r12, r12
     ed6:	dd 24       	eor	r13, r13
     ed8:	21 e0       	ldi	r18, 0x01	; 1
     eda:	62 2e       	mov	r6, r18
     edc:	71 2c       	mov	r7, r1
     ede:	6c 0e       	add	r6, r28
     ee0:	7d 1e       	adc	r7, r29
     ee2:	6c 0c       	add	r6, r12
     ee4:	7d 1c       	adc	r7, r13
     ee6:	e8 e2       	ldi	r30, 0x28	; 40
     ee8:	f0 e0       	ldi	r31, 0x00	; 0
     eea:	ce 0e       	add	r12, r30
     eec:	df 1e       	adc	r13, r31
     eee:	91 e0       	ldi	r25, 0x01	; 1
     ef0:	a9 2e       	mov	r10, r25
     ef2:	b1 2c       	mov	r11, r1
     ef4:	ac 0e       	add	r10, r28
     ef6:	bd 1e       	adc	r11, r29
     ef8:	ac 0c       	add	r10, r12
     efa:	bd 1c       	adc	r11, r13
     efc:	ce 0e       	add	r12, r30
     efe:	df 1e       	adc	r13, r31
     f00:	81 e0       	ldi	r24, 0x01	; 1
     f02:	88 2e       	mov	r8, r24
     f04:	91 2c       	mov	r9, r1
     f06:	8c 0e       	add	r8, r28
     f08:	9d 1e       	adc	r9, r29
     f0a:	8c 0c       	add	r8, r12
     f0c:	9d 1c       	adc	r9, r13
     f0e:	20 eb       	ldi	r18, 0xB0	; 176
     f10:	3f ef       	ldi	r19, 0xFF	; 255
     f12:	c2 0e       	add	r12, r18
     f14:	d3 1e       	adc	r13, r19
     f16:	55 24       	eor	r5, r5
     f18:	53 94       	inc	r5
     f1a:	ea c9       	rjmp	.-3116   	; 0x2f0 <main+0x1f4>
     f1c:	ee 24       	eor	r14, r14
     f1e:	ff 24       	eor	r15, r15
     f20:	01 e0       	ldi	r16, 0x01	; 1
     f22:	10 e0       	ldi	r17, 0x00	; 0
     f24:	0c 0f       	add	r16, r28
     f26:	1d 1f       	adc	r17, r29
     f28:	0e 0d       	add	r16, r14
     f2a:	1f 1d       	adc	r17, r15
     f2c:	dd 24       	eor	r13, r13
     f2e:	5c c9       	rjmp	.-3400   	; 0x1e8 <main+0xec>
     f30:	ce 01       	movw	r24, r28
     f32:	8e 50       	subi	r24, 0x0E	; 14
     f34:	9a 4f       	sbci	r25, 0xFA	; 250
     f36:	c8 5b       	subi	r28, 0xB8	; 184
     f38:	d9 4f       	sbci	r29, 0xF9	; 249
     f3a:	99 83       	std	Y+1, r25	; 0x01
     f3c:	88 83       	st	Y, r24
     f3e:	c8 54       	subi	r28, 0x48	; 72
     f40:	d6 40       	sbci	r29, 0x06	; 6
     f42:	de 01       	movw	r26, r28
     f44:	a6 5e       	subi	r26, 0xE6	; 230
     f46:	b9 4f       	sbci	r27, 0xF9	; 249
     f48:	ca 5b       	subi	r28, 0xBA	; 186
     f4a:	d9 4f       	sbci	r29, 0xF9	; 249
     f4c:	b9 83       	std	Y+1, r27	; 0x01
     f4e:	a8 83       	st	Y, r26
     f50:	c6 54       	subi	r28, 0x46	; 70
     f52:	d6 40       	sbci	r29, 0x06	; 6
     f54:	fe 01       	movw	r30, r28
     f56:	ba 96       	adiw	r30, 0x2a	; 42
     f58:	cc 5b       	subi	r28, 0xBC	; 188
     f5a:	d9 4f       	sbci	r29, 0xF9	; 249
     f5c:	f9 83       	std	Y+1, r31	; 0x01
     f5e:	e8 83       	st	Y, r30
     f60:	c4 54       	subi	r28, 0x44	; 68
     f62:	d6 40       	sbci	r29, 0x06	; 6
     f64:	c2 5a       	subi	r28, 0xA2	; 162
     f66:	d9 4f       	sbci	r29, 0xF9	; 249
     f68:	18 82       	st	Y, r1
     f6a:	ce 55       	subi	r28, 0x5E	; 94
     f6c:	d6 40       	sbci	r29, 0x06	; 6
     f6e:	c6 5b       	subi	r28, 0xB6	; 182
     f70:	d9 4f       	sbci	r29, 0xF9	; 249
     f72:	19 82       	std	Y+1, r1	; 0x01
     f74:	18 82       	st	Y, r1
     f76:	ca 54       	subi	r28, 0x4A	; 74
     f78:	d6 40       	sbci	r29, 0x06	; 6
     f7a:	21 e0       	ldi	r18, 0x01	; 1
     f7c:	30 e0       	ldi	r19, 0x00	; 0
     f7e:	ce 5b       	subi	r28, 0xBE	; 190
     f80:	d9 4f       	sbci	r29, 0xF9	; 249
     f82:	39 83       	std	Y+1, r19	; 0x01
     f84:	28 83       	st	Y, r18
     f86:	c2 54       	subi	r28, 0x42	; 66
     f88:	d6 40       	sbci	r29, 0x06	; 6
     f8a:	c6 5b       	subi	r28, 0xB6	; 182
     f8c:	d9 4f       	sbci	r29, 0xF9	; 249
     f8e:	88 81       	ld	r24, Y
     f90:	99 81       	ldd	r25, Y+1	; 0x01
     f92:	ca 54       	subi	r28, 0x4A	; 74
     f94:	d6 40       	sbci	r29, 0x06	; 6
     f96:	80 5b       	subi	r24, 0xB0	; 176
     f98:	9f 4f       	sbci	r25, 0xFF	; 255
     f9a:	a1 e0       	ldi	r26, 0x01	; 1
     f9c:	b0 e0       	ldi	r27, 0x00	; 0
     f9e:	ac 0f       	add	r26, r28
     fa0:	bd 1f       	adc	r27, r29
     fa2:	a8 0f       	add	r26, r24
     fa4:	b9 1f       	adc	r27, r25
     fa6:	c0 5b       	subi	r28, 0xB0	; 176
     fa8:	d9 4f       	sbci	r29, 0xF9	; 249
     faa:	b9 83       	std	Y+1, r27	; 0x01
     fac:	a8 83       	st	Y, r26
     fae:	c0 55       	subi	r28, 0x50	; 80
     fb0:	d6 40       	sbci	r29, 0x06	; 6
     fb2:	80 55       	subi	r24, 0x50	; 80
     fb4:	90 40       	sbci	r25, 0x00	; 0
     fb6:	e1 e0       	ldi	r30, 0x01	; 1
     fb8:	f0 e0       	ldi	r31, 0x00	; 0
     fba:	ec 0f       	add	r30, r28
     fbc:	fd 1f       	adc	r31, r29
     fbe:	e8 0f       	add	r30, r24
     fc0:	f9 1f       	adc	r31, r25
     fc2:	c2 5b       	subi	r28, 0xB2	; 178
     fc4:	d9 4f       	sbci	r29, 0xF9	; 249
     fc6:	f9 83       	std	Y+1, r31	; 0x01
     fc8:	e8 83       	st	Y, r30
     fca:	ce 54       	subi	r28, 0x4E	; 78
     fcc:	d6 40       	sbci	r29, 0x06	; 6
     fce:	88 96       	adiw	r24, 0x28	; 40
     fd0:	21 e0       	ldi	r18, 0x01	; 1
     fd2:	30 e0       	ldi	r19, 0x00	; 0
     fd4:	2c 0f       	add	r18, r28
     fd6:	3d 1f       	adc	r19, r29
     fd8:	28 0f       	add	r18, r24
     fda:	39 1f       	adc	r19, r25
     fdc:	c4 5b       	subi	r28, 0xB4	; 180
     fde:	d9 4f       	sbci	r29, 0xF9	; 249
     fe0:	39 83       	std	Y+1, r19	; 0x01
     fe2:	28 83       	st	Y, r18
     fe4:	cc 54       	subi	r28, 0x4C	; 76
     fe6:	d6 40       	sbci	r29, 0x06	; 6
     fe8:	88 97       	sbiw	r24, 0x28	; 40
     fea:	c6 5b       	subi	r28, 0xB6	; 182
     fec:	d9 4f       	sbci	r29, 0xF9	; 249
     fee:	99 83       	std	Y+1, r25	; 0x01
     ff0:	88 83       	st	Y, r24
     ff2:	ca 54       	subi	r28, 0x4A	; 74
     ff4:	d6 40       	sbci	r29, 0x06	; 6
     ff6:	31 e0       	ldi	r19, 0x01	; 1
     ff8:	cf 5b       	subi	r28, 0xBF	; 191
     ffa:	d9 4f       	sbci	r29, 0xF9	; 249
     ffc:	38 83       	st	Y, r19
     ffe:	c1 54       	subi	r28, 0x41	; 65
    1000:	d6 40       	sbci	r29, 0x06	; 6
    1002:	57 ca       	rjmp	.-2898   	; 0x4b2 <main+0x3b6>
    1004:	a0 e0       	ldi	r26, 0x00	; 0
    1006:	b0 e0       	ldi	r27, 0x00	; 0
    1008:	40 e0       	ldi	r20, 0x00	; 0
    100a:	50 e0       	ldi	r21, 0x00	; 0
    100c:	14 2f       	mov	r17, r20
    100e:	e1 e0       	ldi	r30, 0x01	; 1
    1010:	f0 e0       	ldi	r31, 0x00	; 0
    1012:	ec 0f       	add	r30, r28
    1014:	fd 1f       	adc	r31, r29
    1016:	e4 0f       	add	r30, r20
    1018:	f5 1f       	adc	r31, r21
    101a:	20 e0       	ldi	r18, 0x00	; 0
    101c:	30 e0       	ldi	r19, 0x00	; 0
    101e:	17 cd       	rjmp	.-1490   	; 0xa4e <__stack+0x1ef>

00001020 <Timer_init>:
    1020:	78 94       	sei
    1022:	80 e2       	ldi	r24, 0x20	; 32
    1024:	9e e4       	ldi	r25, 0x4E	; 78
    1026:	01 97       	sbiw	r24, 0x01	; 1
    1028:	f1 f7       	brne	.-4      	; 0x1026 <Timer_init+0x6>
    102a:	17 bc       	out	0x27, r1	; 39
    102c:	16 bc       	out	0x26, r1	; 38
    102e:	8f b5       	in	r24, 0x2f	; 47
    1030:	8f bd       	out	0x2f, r24	; 47
    1032:	8c b5       	in	r24, 0x2c	; 44
    1034:	9d b5       	in	r25, 0x2d	; 45
    1036:	9d bd       	out	0x2d, r25	; 45
    1038:	8c bd       	out	0x2c, r24	; 44
    103a:	8e b5       	in	r24, 0x2e	; 46
    103c:	8e bd       	out	0x2e, r24	; 46
    103e:	8c b5       	in	r24, 0x2c	; 44
    1040:	9d b5       	in	r25, 0x2d	; 45
    1042:	9d bd       	out	0x2d, r25	; 45
    1044:	8c bd       	out	0x2c, r24	; 44
    1046:	83 b7       	in	r24, 0x33	; 51
    1048:	83 bf       	out	0x33, r24	; 51
    104a:	82 b7       	in	r24, 0x32	; 50
    104c:	82 bf       	out	0x32, r24	; 50
    104e:	85 b5       	in	r24, 0x25	; 37
    1050:	85 bd       	out	0x25, r24	; 37
    1052:	84 b5       	in	r24, 0x24	; 36
    1054:	84 bd       	out	0x24, r24	; 36
    1056:	19 be       	out	0x39, r1	; 57
    1058:	88 b7       	in	r24, 0x38	; 56
    105a:	84 60       	ori	r24, 0x04	; 4
    105c:	88 bf       	out	0x38, r24	; 56
    105e:	88 b7       	in	r24, 0x38	; 56
    1060:	82 60       	ori	r24, 0x02	; 2
    1062:	88 bf       	out	0x38, r24	; 56
    1064:	88 b7       	in	r24, 0x38	; 56
    1066:	80 68       	ori	r24, 0x80	; 128
    1068:	88 bf       	out	0x38, r24	; 56
    106a:	08 95       	ret

0000106c <Timer_1A>:
    106c:	2f ef       	ldi	r18, 0xFF	; 255
    106e:	30 e0       	ldi	r19, 0x00	; 0
    1070:	37 bd       	out	0x27, r19	; 39
    1072:	26 bd       	out	0x26, r18	; 38
    1074:	9b bd       	out	0x2b, r25	; 43
    1076:	8a bd       	out	0x2a, r24	; 42
    1078:	8f b5       	in	r24, 0x2f	; 47
    107a:	82 6a       	ori	r24, 0xA2	; 162
    107c:	8f bd       	out	0x2f, r24	; 47
    107e:	8e b5       	in	r24, 0x2e	; 46
    1080:	8b 61       	ori	r24, 0x1B	; 27
    1082:	8e bd       	out	0x2e, r24	; 46
    1084:	89 b7       	in	r24, 0x39	; 57
    1086:	84 60       	ori	r24, 0x04	; 4
    1088:	89 bf       	out	0x39, r24	; 57
    108a:	08 95       	ret

0000108c <Timer_1B>:
    108c:	2f ef       	ldi	r18, 0xFF	; 255
    108e:	30 e0       	ldi	r19, 0x00	; 0
    1090:	37 bd       	out	0x27, r19	; 39
    1092:	26 bd       	out	0x26, r18	; 38
    1094:	99 bd       	out	0x29, r25	; 41
    1096:	88 bd       	out	0x28, r24	; 40
    1098:	8f b5       	in	r24, 0x2f	; 47
    109a:	82 6a       	ori	r24, 0xA2	; 162
    109c:	8f bd       	out	0x2f, r24	; 47
    109e:	8e b5       	in	r24, 0x2e	; 46
    10a0:	8b 61       	ori	r24, 0x1B	; 27
    10a2:	8e bd       	out	0x2e, r24	; 46
    10a4:	08 95       	ret

000010a6 <Timer_0>:
    10a6:	2f ef       	ldi	r18, 0xFF	; 255
    10a8:	30 e0       	ldi	r19, 0x00	; 0
    10aa:	37 bd       	out	0x27, r19	; 39
    10ac:	26 bd       	out	0x26, r18	; 38
    10ae:	2f b5       	in	r18, 0x2f	; 47
    10b0:	22 6a       	ori	r18, 0xA2	; 162
    10b2:	2f bd       	out	0x2f, r18	; 47
    10b4:	2e b5       	in	r18, 0x2e	; 46
    10b6:	2b 61       	ori	r18, 0x1B	; 27
    10b8:	2e bd       	out	0x2e, r18	; 46
    10ba:	29 b7       	in	r18, 0x39	; 57
    10bc:	24 60       	ori	r18, 0x04	; 4
    10be:	29 bf       	out	0x39, r18	; 57
    10c0:	8c bf       	out	0x3c, r24	; 60
    10c2:	83 b7       	in	r24, 0x33	; 51
    10c4:	8b 64       	ori	r24, 0x4B	; 75
    10c6:	83 bf       	out	0x33, r24	; 51
    10c8:	08 95       	ret

000010ca <__vector_9>:
    10ca:	1f 92       	push	r1
    10cc:	0f 92       	push	r0
    10ce:	0f b6       	in	r0, 0x3f	; 63
    10d0:	0f 92       	push	r0
    10d2:	11 24       	eor	r1, r1
    10d4:	8f 93       	push	r24
    10d6:	9f 93       	push	r25
    10d8:	82 b3       	in	r24, 0x12	; 18
    10da:	98 e0       	ldi	r25, 0x08	; 8
    10dc:	89 27       	eor	r24, r25
    10de:	82 bb       	out	0x12, r24	; 18
    10e0:	88 b7       	in	r24, 0x38	; 56
    10e2:	82 60       	ori	r24, 0x02	; 2
    10e4:	88 bf       	out	0x38, r24	; 56
    10e6:	89 b7       	in	r24, 0x39	; 57
    10e8:	82 60       	ori	r24, 0x02	; 2
    10ea:	89 bf       	out	0x39, r24	; 57
    10ec:	12 be       	out	0x32, r1	; 50
    10ee:	9f 91       	pop	r25
    10f0:	8f 91       	pop	r24
    10f2:	0f 90       	pop	r0
    10f4:	0f be       	out	0x3f, r0	; 63
    10f6:	0f 90       	pop	r0
    10f8:	1f 90       	pop	r1
    10fa:	18 95       	reti

000010fc <__vector_10>:
    10fc:	1f 92       	push	r1
    10fe:	0f 92       	push	r0
    1100:	0f b6       	in	r0, 0x3f	; 63
    1102:	0f 92       	push	r0
    1104:	11 24       	eor	r1, r1
    1106:	8f 93       	push	r24
    1108:	93 98       	cbi	0x12, 3	; 18
    110a:	89 b7       	in	r24, 0x39	; 57
    110c:	8d 7f       	andi	r24, 0xFD	; 253
    110e:	89 bf       	out	0x39, r24	; 57
    1110:	8f 91       	pop	r24
    1112:	0f 90       	pop	r0
    1114:	0f be       	out	0x3f, r0	; 63
    1116:	0f 90       	pop	r0
    1118:	1f 90       	pop	r1
    111a:	18 95       	reti

0000111c <LCDBusyLoop>:
    111c:	87 b3       	in	r24, 0x17	; 23
    111e:	80 7f       	andi	r24, 0xF0	; 240
    1120:	87 bb       	out	0x17, r24	; 23
    1122:	c5 9a       	sbi	0x18, 5	; 24
    1124:	c4 98       	cbi	0x18, 4	; 24
    1126:	81 e0       	ldi	r24, 0x01	; 1
    1128:	8a 95       	dec	r24
    112a:	f1 f7       	brne	.-4      	; 0x1128 <LCDBusyLoop+0xc>
    112c:	c6 9a       	sbi	0x18, 6	; 24
    112e:	81 e0       	ldi	r24, 0x01	; 1
    1130:	98 2f       	mov	r25, r24
    1132:	9a 95       	dec	r25
    1134:	f1 f7       	brne	.-4      	; 0x1132 <LCDBusyLoop+0x16>
    1136:	26 b3       	in	r18, 0x16	; 22
    1138:	22 95       	swap	r18
    113a:	20 7f       	andi	r18, 0xF0	; 240
    113c:	98 2f       	mov	r25, r24
    113e:	9a 95       	dec	r25
    1140:	f1 f7       	brne	.-4      	; 0x113e <LCDBusyLoop+0x22>
    1142:	c6 98       	cbi	0x18, 6	; 24
    1144:	92 e0       	ldi	r25, 0x02	; 2
    1146:	39 2f       	mov	r19, r25
    1148:	3a 95       	dec	r19
    114a:	f1 f7       	brne	.-4      	; 0x1148 <LCDBusyLoop+0x2c>
    114c:	c6 9a       	sbi	0x18, 6	; 24
    114e:	38 2f       	mov	r19, r24
    1150:	3a 95       	dec	r19
    1152:	f1 f7       	brne	.-4      	; 0x1150 <LCDBusyLoop+0x34>
    1154:	36 b3       	in	r19, 0x16	; 22
    1156:	8a 95       	dec	r24
    1158:	f1 f7       	brne	.-4      	; 0x1156 <LCDBusyLoop+0x3a>
    115a:	c6 98       	cbi	0x18, 6	; 24
    115c:	9a 95       	dec	r25
    115e:	f1 f7       	brne	.-4      	; 0x115c <LCDBusyLoop+0x40>
    1160:	27 fd       	sbrc	r18, 7
    1162:	e4 cf       	rjmp	.-56     	; 0x112c <LCDBusyLoop+0x10>
    1164:	c5 98       	cbi	0x18, 5	; 24
    1166:	87 b3       	in	r24, 0x17	; 23
    1168:	8f 60       	ori	r24, 0x0F	; 15
    116a:	87 bb       	out	0x17, r24	; 23
    116c:	08 95       	ret

0000116e <LCDByte>:
    116e:	28 2f       	mov	r18, r24
    1170:	66 23       	and	r22, r22
    1172:	11 f4       	brne	.+4      	; 0x1178 <LCDByte+0xa>
    1174:	c4 98       	cbi	0x18, 4	; 24
    1176:	01 c0       	rjmp	.+2      	; 0x117a <LCDByte+0xc>
    1178:	c4 9a       	sbi	0x18, 4	; 24
    117a:	81 e0       	ldi	r24, 0x01	; 1
    117c:	8a 95       	dec	r24
    117e:	f1 f7       	brne	.-4      	; 0x117c <LCDByte+0xe>
    1180:	c6 9a       	sbi	0x18, 6	; 24
    1182:	88 b3       	in	r24, 0x18	; 24
    1184:	92 2f       	mov	r25, r18
    1186:	92 95       	swap	r25
    1188:	9f 70       	andi	r25, 0x0F	; 15
    118a:	80 7f       	andi	r24, 0xF0	; 240
    118c:	98 2b       	or	r25, r24
    118e:	98 bb       	out	0x18, r25	; 24
    1190:	92 e0       	ldi	r25, 0x02	; 2
    1192:	89 2f       	mov	r24, r25
    1194:	8a 95       	dec	r24
    1196:	f1 f7       	brne	.-4      	; 0x1194 <LCDByte+0x26>
    1198:	c6 98       	cbi	0x18, 6	; 24
    119a:	89 2f       	mov	r24, r25
    119c:	8a 95       	dec	r24
    119e:	f1 f7       	brne	.-4      	; 0x119c <LCDByte+0x2e>
    11a0:	c6 9a       	sbi	0x18, 6	; 24
    11a2:	88 b3       	in	r24, 0x18	; 24
    11a4:	2f 70       	andi	r18, 0x0F	; 15
    11a6:	80 7f       	andi	r24, 0xF0	; 240
    11a8:	82 2b       	or	r24, r18
    11aa:	88 bb       	out	0x18, r24	; 24
    11ac:	89 2f       	mov	r24, r25
    11ae:	8a 95       	dec	r24
    11b0:	f1 f7       	brne	.-4      	; 0x11ae <LCDByte+0x40>
    11b2:	c6 98       	cbi	0x18, 6	; 24
    11b4:	9a 95       	dec	r25
    11b6:	f1 f7       	brne	.-4      	; 0x11b4 <LCDByte+0x46>
    11b8:	0e 94 8e 08 	call	0x111c	; 0x111c <LCDBusyLoop>
    11bc:	08 95       	ret

000011be <LCDWriteString>:
    11be:	cf 93       	push	r28
    11c0:	df 93       	push	r29
    11c2:	ec 01       	movw	r28, r24
    11c4:	12 c0       	rjmp	.+36     	; 0x11ea <LCDWriteString+0x2c>
    11c6:	85 32       	cpi	r24, 0x25	; 37
    11c8:	61 f4       	brne	.+24     	; 0x11e2 <LCDWriteString+0x24>
    11ca:	21 96       	adiw	r28, 0x01	; 1
    11cc:	88 81       	ld	r24, Y
    11ce:	80 53       	subi	r24, 0x30	; 48
    11d0:	88 30       	cpi	r24, 0x08	; 8
    11d2:	38 f0       	brcs	.+14     	; 0x11e2 <LCDWriteString+0x24>
    11d4:	61 e0       	ldi	r22, 0x01	; 1
    11d6:	85 e2       	ldi	r24, 0x25	; 37
    11d8:	0e 94 b7 08 	call	0x116e	; 0x116e <LCDByte>
    11dc:	61 e0       	ldi	r22, 0x01	; 1
    11de:	88 81       	ld	r24, Y
    11e0:	01 c0       	rjmp	.+2      	; 0x11e4 <LCDWriteString+0x26>
    11e2:	61 e0       	ldi	r22, 0x01	; 1
    11e4:	0e 94 b7 08 	call	0x116e	; 0x116e <LCDByte>
    11e8:	21 96       	adiw	r28, 0x01	; 1
    11ea:	88 81       	ld	r24, Y
    11ec:	88 23       	and	r24, r24
    11ee:	59 f7       	brne	.-42     	; 0x11c6 <LCDWriteString+0x8>
    11f0:	df 91       	pop	r29
    11f2:	cf 91       	pop	r28
    11f4:	08 95       	ret

000011f6 <LCDWriteInt>:
    11f6:	ef 92       	push	r14
    11f8:	ff 92       	push	r15
    11fa:	0f 93       	push	r16
    11fc:	1f 93       	push	r17
    11fe:	cf 93       	push	r28
    1200:	df 93       	push	r29
    1202:	cd b7       	in	r28, 0x3d	; 61
    1204:	de b7       	in	r29, 0x3e	; 62
    1206:	25 97       	sbiw	r28, 0x05	; 5
    1208:	0f b6       	in	r0, 0x3f	; 63
    120a:	f8 94       	cli
    120c:	de bf       	out	0x3e, r29	; 62
    120e:	0f be       	out	0x3f, r0	; 63
    1210:	cd bf       	out	0x3d, r28	; 61
    1212:	9c 01       	movw	r18, r24
    1214:	8b 01       	movw	r16, r22
    1216:	85 e0       	ldi	r24, 0x05	; 5
    1218:	fe 01       	movw	r30, r28
    121a:	31 96       	adiw	r30, 0x01	; 1
    121c:	11 92       	st	Z+, r1
    121e:	8a 95       	dec	r24
    1220:	e9 f7       	brne	.-6      	; 0x121c <LCDWriteInt+0x26>
    1222:	fe 01       	movw	r30, r28
    1224:	35 96       	adiw	r30, 0x05	; 5
    1226:	0c c0       	rjmp	.+24     	; 0x1240 <LCDWriteInt+0x4a>
    1228:	c9 01       	movw	r24, r18
    122a:	6a e0       	ldi	r22, 0x0A	; 10
    122c:	70 e0       	ldi	r23, 0x00	; 0
    122e:	0e 94 e8 11 	call	0x23d0	; 0x23d0 <__divmodhi4>
    1232:	81 83       	std	Z+1, r24	; 0x01
    1234:	c9 01       	movw	r24, r18
    1236:	6a e0       	ldi	r22, 0x0A	; 10
    1238:	70 e0       	ldi	r23, 0x00	; 0
    123a:	0e 94 e8 11 	call	0x23d0	; 0x23d0 <__divmodhi4>
    123e:	9b 01       	movw	r18, r22
    1240:	31 97       	sbiw	r30, 0x01	; 1
    1242:	21 15       	cp	r18, r1
    1244:	31 05       	cpc	r19, r1
    1246:	81 f7       	brne	.-32     	; 0x1228 <LCDWriteInt+0x32>
    1248:	8f ef       	ldi	r24, 0xFF	; 255
    124a:	0f 3f       	cpi	r16, 0xFF	; 255
    124c:	18 07       	cpc	r17, r24
    124e:	79 f4       	brne	.+30     	; 0x126e <LCDWriteInt+0x78>
    1250:	20 e0       	ldi	r18, 0x00	; 0
    1252:	30 e0       	ldi	r19, 0x00	; 0
    1254:	ae 01       	movw	r20, r28
    1256:	4f 5f       	subi	r20, 0xFF	; 255
    1258:	5f 4f       	sbci	r21, 0xFF	; 255
    125a:	02 c0       	rjmp	.+4      	; 0x1260 <LCDWriteInt+0x6a>
    125c:	2f 5f       	subi	r18, 0xFF	; 255
    125e:	3f 4f       	sbci	r19, 0xFF	; 255
    1260:	fa 01       	movw	r30, r20
    1262:	e2 0f       	add	r30, r18
    1264:	f3 1f       	adc	r31, r19
    1266:	80 81       	ld	r24, Z
    1268:	88 23       	and	r24, r24
    126a:	c1 f3       	breq	.-16     	; 0x125c <LCDWriteInt+0x66>
    126c:	04 c0       	rjmp	.+8      	; 0x1276 <LCDWriteInt+0x80>
    126e:	25 e0       	ldi	r18, 0x05	; 5
    1270:	30 e0       	ldi	r19, 0x00	; 0
    1272:	20 1b       	sub	r18, r16
    1274:	31 0b       	sbc	r19, r17
    1276:	7e 01       	movw	r14, r28
    1278:	08 94       	sec
    127a:	e1 1c       	adc	r14, r1
    127c:	f1 1c       	adc	r15, r1
    127e:	e2 0e       	add	r14, r18
    1280:	f3 1e       	adc	r15, r19
    1282:	89 01       	movw	r16, r18
    1284:	09 c0       	rjmp	.+18     	; 0x1298 <LCDWriteInt+0xa2>
    1286:	f7 01       	movw	r30, r14
    1288:	81 91       	ld	r24, Z+
    128a:	7f 01       	movw	r14, r30
    128c:	61 e0       	ldi	r22, 0x01	; 1
    128e:	80 5d       	subi	r24, 0xD0	; 208
    1290:	0e 94 b7 08 	call	0x116e	; 0x116e <LCDByte>
    1294:	0f 5f       	subi	r16, 0xFF	; 255
    1296:	1f 4f       	sbci	r17, 0xFF	; 255
    1298:	05 30       	cpi	r16, 0x05	; 5
    129a:	11 05       	cpc	r17, r1
    129c:	a4 f3       	brlt	.-24     	; 0x1286 <LCDWriteInt+0x90>
    129e:	25 96       	adiw	r28, 0x05	; 5
    12a0:	0f b6       	in	r0, 0x3f	; 63
    12a2:	f8 94       	cli
    12a4:	de bf       	out	0x3e, r29	; 62
    12a6:	0f be       	out	0x3f, r0	; 63
    12a8:	cd bf       	out	0x3d, r28	; 61
    12aa:	df 91       	pop	r29
    12ac:	cf 91       	pop	r28
    12ae:	1f 91       	pop	r17
    12b0:	0f 91       	pop	r16
    12b2:	ff 90       	pop	r15
    12b4:	ef 90       	pop	r14
    12b6:	08 95       	ret

000012b8 <LCDGotoXY>:
    12b8:	84 31       	cpi	r24, 0x14	; 20
    12ba:	78 f4       	brcc	.+30     	; 0x12da <LCDGotoXY+0x22>
    12bc:	62 30       	cpi	r22, 0x02	; 2
    12be:	31 f0       	breq	.+12     	; 0x12cc <LCDGotoXY+0x14>
    12c0:	63 30       	cpi	r22, 0x03	; 3
    12c2:	31 f0       	breq	.+12     	; 0x12d0 <LCDGotoXY+0x18>
    12c4:	61 30       	cpi	r22, 0x01	; 1
    12c6:	29 f4       	brne	.+10     	; 0x12d2 <LCDGotoXY+0x1a>
    12c8:	80 64       	ori	r24, 0x40	; 64
    12ca:	03 c0       	rjmp	.+6      	; 0x12d2 <LCDGotoXY+0x1a>
    12cc:	8c 5e       	subi	r24, 0xEC	; 236
    12ce:	01 c0       	rjmp	.+2      	; 0x12d2 <LCDGotoXY+0x1a>
    12d0:	8c 5a       	subi	r24, 0xAC	; 172
    12d2:	60 e0       	ldi	r22, 0x00	; 0
    12d4:	80 68       	ori	r24, 0x80	; 128
    12d6:	0e 94 b7 08 	call	0x116e	; 0x116e <LCDByte>
    12da:	08 95       	ret

000012dc <LCDInit>:
    12dc:	1f 93       	push	r17
    12de:	cf 93       	push	r28
    12e0:	df 93       	push	r29
    12e2:	18 2f       	mov	r17, r24
    12e4:	80 e6       	ldi	r24, 0x60	; 96
    12e6:	9a ee       	ldi	r25, 0xEA	; 234
    12e8:	01 97       	sbiw	r24, 0x01	; 1
    12ea:	f1 f7       	brne	.-4      	; 0x12e8 <LCDInit+0xc>
    12ec:	87 b3       	in	r24, 0x17	; 23
    12ee:	8f 60       	ori	r24, 0x0F	; 15
    12f0:	87 bb       	out	0x17, r24	; 23
    12f2:	be 9a       	sbi	0x17, 6	; 23
    12f4:	bc 9a       	sbi	0x17, 4	; 23
    12f6:	bd 9a       	sbi	0x17, 5	; 23
    12f8:	88 b3       	in	r24, 0x18	; 24
    12fa:	80 7f       	andi	r24, 0xF0	; 240
    12fc:	88 bb       	out	0x18, r24	; 24
    12fe:	c6 98       	cbi	0x18, 6	; 24
    1300:	c5 98       	cbi	0x18, 5	; 24
    1302:	c4 98       	cbi	0x18, 4	; 24
    1304:	81 e0       	ldi	r24, 0x01	; 1
    1306:	8a 95       	dec	r24
    1308:	f1 f7       	brne	.-4      	; 0x1306 <LCDInit+0x2a>
    130a:	c6 9a       	sbi	0x18, 6	; 24
    130c:	c1 9a       	sbi	0x18, 1	; 24
    130e:	82 e0       	ldi	r24, 0x02	; 2
    1310:	98 2f       	mov	r25, r24
    1312:	9a 95       	dec	r25
    1314:	f1 f7       	brne	.-4      	; 0x1312 <LCDInit+0x36>
    1316:	c6 98       	cbi	0x18, 6	; 24
    1318:	8a 95       	dec	r24
    131a:	f1 f7       	brne	.-4      	; 0x1318 <LCDInit+0x3c>
    131c:	0e 94 8e 08 	call	0x111c	; 0x111c <LCDBusyLoop>
    1320:	60 e0       	ldi	r22, 0x00	; 0
    1322:	81 2f       	mov	r24, r17
    1324:	8c 60       	ori	r24, 0x0C	; 12
    1326:	0e 94 b7 08 	call	0x116e	; 0x116e <LCDByte>
    132a:	60 e0       	ldi	r22, 0x00	; 0
    132c:	88 e2       	ldi	r24, 0x28	; 40
    132e:	0e 94 b7 08 	call	0x116e	; 0x116e <LCDByte>
    1332:	60 e0       	ldi	r22, 0x00	; 0
    1334:	80 e4       	ldi	r24, 0x40	; 64
    1336:	0e 94 b7 08 	call	0x116e	; 0x116e <LCDByte>
    133a:	c0 e6       	ldi	r28, 0x60	; 96
    133c:	d0 e0       	ldi	r29, 0x00	; 0
    133e:	61 e0       	ldi	r22, 0x01	; 1
    1340:	89 91       	ld	r24, Y+
    1342:	0e 94 b7 08 	call	0x116e	; 0x116e <LCDByte>
    1346:	80 e0       	ldi	r24, 0x00	; 0
    1348:	c0 3a       	cpi	r28, 0xA0	; 160
    134a:	d8 07       	cpc	r29, r24
    134c:	c1 f7       	brne	.-16     	; 0x133e <LCDInit+0x62>
    134e:	60 e0       	ldi	r22, 0x00	; 0
    1350:	80 e0       	ldi	r24, 0x00	; 0
    1352:	0e 94 5c 09 	call	0x12b8	; 0x12b8 <LCDGotoXY>
    1356:	df 91       	pop	r29
    1358:	cf 91       	pop	r28
    135a:	1f 91       	pop	r17
    135c:	08 95       	ret

0000135e <USARTInit>:
    135e:	2f ef       	ldi	r18, 0xFF	; 255
    1360:	20 93 a1 01 	sts	0x01A1, r18
    1364:	20 91 a1 01 	lds	r18, 0x01A1
    1368:	20 93 a0 01 	sts	0x01A0, r18
    136c:	29 2f       	mov	r18, r25
    136e:	33 27       	eor	r19, r19
    1370:	20 bd       	out	0x20, r18	; 32
    1372:	89 b9       	out	0x09, r24	; 9
    1374:	86 e8       	ldi	r24, 0x86	; 134
    1376:	80 bd       	out	0x20, r24	; 32
    1378:	88 e1       	ldi	r24, 0x18	; 24
    137a:	8a b9       	out	0x0a, r24	; 10
    137c:	78 94       	sei
    137e:	08 95       	ret

00001380 <USART_Receive>:
    1380:	5f 9b       	sbis	0x0b, 7	; 11
    1382:	fe cf       	rjmp	.-4      	; 0x1380 <USART_Receive>
    1384:	8c b1       	in	r24, 0x0c	; 12
    1386:	90 e0       	ldi	r25, 0x00	; 0
    1388:	08 95       	ret

0000138a <UReadData>:
    138a:	e0 91 a1 01 	lds	r30, 0x01A1
    138e:	ff 27       	eor	r31, r31
    1390:	e7 fd       	sbrc	r30, 7
    1392:	f0 95       	com	r31
    1394:	ee 55       	subi	r30, 0x5E	; 94
    1396:	fe 4f       	sbci	r31, 0xFE	; 254
    1398:	e0 81       	ld	r30, Z
    139a:	80 91 a1 01 	lds	r24, 0x01A1
    139e:	88 23       	and	r24, r24
    13a0:	19 f4       	brne	.+6      	; 0x13a8 <UReadData+0x1e>
    13a2:	8f ef       	ldi	r24, 0xFF	; 255
    13a4:	80 93 a1 01 	sts	0x01A1, r24
    13a8:	80 91 a1 01 	lds	r24, 0x01A1
    13ac:	8f 5f       	subi	r24, 0xFF	; 255
    13ae:	80 93 a1 01 	sts	0x01A1, r24
    13b2:	80 91 a1 01 	lds	r24, 0x01A1
    13b6:	85 30       	cpi	r24, 0x05	; 5
    13b8:	11 f4       	brne	.+4      	; 0x13be <UReadData+0x34>
    13ba:	10 92 a1 01 	sts	0x01A1, r1
    13be:	8e 2f       	mov	r24, r30
    13c0:	90 e0       	ldi	r25, 0x00	; 0
    13c2:	08 95       	ret

000013c4 <UWriteData>:
    13c4:	5d 9b       	sbis	0x0b, 5	; 11
    13c6:	fe cf       	rjmp	.-4      	; 0x13c4 <UWriteData>
    13c8:	8c b9       	out	0x0c, r24	; 12
    13ca:	08 95       	ret

000013cc <UDataAvailable>:
    13cc:	80 91 a1 01 	lds	r24, 0x01A1
    13d0:	90 e0       	ldi	r25, 0x00	; 0
    13d2:	08 95       	ret

000013d4 <UWriteString>:
    13d4:	fc 01       	movw	r30, r24
    13d6:	04 c0       	rjmp	.+8      	; 0x13e0 <UWriteString+0xc>
    13d8:	5d 9b       	sbis	0x0b, 5	; 11
    13da:	fe cf       	rjmp	.-4      	; 0x13d8 <UWriteString+0x4>
    13dc:	8c b9       	out	0x0c, r24	; 12
    13de:	31 96       	adiw	r30, 0x01	; 1
    13e0:	80 81       	ld	r24, Z
    13e2:	88 23       	and	r24, r24
    13e4:	c9 f7       	brne	.-14     	; 0x13d8 <UWriteString+0x4>
    13e6:	5d 9b       	sbis	0x0b, 5	; 11
    13e8:	fe cf       	rjmp	.-4      	; 0x13e6 <UWriteString+0x12>
    13ea:	1c b8       	out	0x0c, r1	; 12
    13ec:	08 95       	ret

000013ee <pulseIn>:
    13ee:	af 92       	push	r10
    13f0:	bf 92       	push	r11
    13f2:	cf 92       	push	r12
    13f4:	df 92       	push	r13
    13f6:	ef 92       	push	r14
    13f8:	ff 92       	push	r15
    13fa:	0f 93       	push	r16
    13fc:	1f 93       	push	r17
    13fe:	cf 93       	push	r28
    1400:	df 93       	push	r29
    1402:	ec 01       	movw	r28, r24
    1404:	89 b3       	in	r24, 0x19	; 25
    1406:	90 e0       	ldi	r25, 0x00	; 0
    1408:	0c 2e       	mov	r0, r28
    140a:	02 c0       	rjmp	.+4      	; 0x1410 <pulseIn+0x22>
    140c:	95 95       	asr	r25
    140e:	87 95       	ror	r24
    1410:	0a 94       	dec	r0
    1412:	e2 f7       	brpl	.-8      	; 0x140c <pulseIn+0x1e>
    1414:	80 fd       	sbrc	r24, 0
    1416:	f6 cf       	rjmp	.-20     	; 0x1404 <pulseIn+0x16>
    1418:	89 b3       	in	r24, 0x19	; 25
    141a:	90 e0       	ldi	r25, 0x00	; 0
    141c:	0c 2e       	mov	r0, r28
    141e:	02 c0       	rjmp	.+4      	; 0x1424 <pulseIn+0x36>
    1420:	95 95       	asr	r25
    1422:	87 95       	ror	r24
    1424:	0a 94       	dec	r0
    1426:	e2 f7       	brpl	.-8      	; 0x1420 <pulseIn+0x32>
    1428:	80 ff       	sbrs	r24, 0
    142a:	f6 cf       	rjmp	.-20     	; 0x1418 <pulseIn+0x2a>
    142c:	0f 2e       	mov	r0, r31
    142e:	f0 e0       	ldi	r31, 0x00	; 0
    1430:	af 2e       	mov	r10, r31
    1432:	f0 e0       	ldi	r31, 0x00	; 0
    1434:	bf 2e       	mov	r11, r31
    1436:	f0 e0       	ldi	r31, 0x00	; 0
    1438:	cf 2e       	mov	r12, r31
    143a:	f0 e0       	ldi	r31, 0x00	; 0
    143c:	df 2e       	mov	r13, r31
    143e:	f0 2d       	mov	r31, r0
    1440:	0a c0       	rjmp	.+20     	; 0x1456 <pulseIn+0x68>
    1442:	20 e0       	ldi	r18, 0x00	; 0
    1444:	30 e0       	ldi	r19, 0x00	; 0
    1446:	40 e8       	ldi	r20, 0x80	; 128
    1448:	5f e3       	ldi	r21, 0x3F	; 63
    144a:	c6 01       	movw	r24, r12
    144c:	b5 01       	movw	r22, r10
    144e:	0e 94 af 0e 	call	0x1d5e	; 0x1d5e <__addsf3>
    1452:	5b 01       	movw	r10, r22
    1454:	6c 01       	movw	r12, r24
    1456:	89 b3       	in	r24, 0x19	; 25
    1458:	90 e0       	ldi	r25, 0x00	; 0
    145a:	0c 2e       	mov	r0, r28
    145c:	02 c0       	rjmp	.+4      	; 0x1462 <pulseIn+0x74>
    145e:	95 95       	asr	r25
    1460:	87 95       	ror	r24
    1462:	0a 94       	dec	r0
    1464:	e2 f7       	brpl	.-8      	; 0x145e <pulseIn+0x70>
    1466:	80 fd       	sbrc	r24, 0
    1468:	ec cf       	rjmp	.-40     	; 0x1442 <pulseIn+0x54>
    146a:	0f 2e       	mov	r0, r31
    146c:	f0 e0       	ldi	r31, 0x00	; 0
    146e:	ef 2e       	mov	r14, r31
    1470:	f0 e0       	ldi	r31, 0x00	; 0
    1472:	ff 2e       	mov	r15, r31
    1474:	f0 e0       	ldi	r31, 0x00	; 0
    1476:	0f 2f       	mov	r16, r31
    1478:	f0 e0       	ldi	r31, 0x00	; 0
    147a:	1f 2f       	mov	r17, r31
    147c:	f0 2d       	mov	r31, r0
    147e:	0a c0       	rjmp	.+20     	; 0x1494 <pulseIn+0xa6>
    1480:	20 e0       	ldi	r18, 0x00	; 0
    1482:	30 e0       	ldi	r19, 0x00	; 0
    1484:	40 e8       	ldi	r20, 0x80	; 128
    1486:	5f e3       	ldi	r21, 0x3F	; 63
    1488:	c8 01       	movw	r24, r16
    148a:	b7 01       	movw	r22, r14
    148c:	0e 94 af 0e 	call	0x1d5e	; 0x1d5e <__addsf3>
    1490:	7b 01       	movw	r14, r22
    1492:	8c 01       	movw	r16, r24
    1494:	89 b3       	in	r24, 0x19	; 25
    1496:	90 e0       	ldi	r25, 0x00	; 0
    1498:	0c 2e       	mov	r0, r28
    149a:	02 c0       	rjmp	.+4      	; 0x14a0 <pulseIn+0xb2>
    149c:	95 95       	asr	r25
    149e:	87 95       	ror	r24
    14a0:	0a 94       	dec	r0
    14a2:	e2 f7       	brpl	.-8      	; 0x149c <pulseIn+0xae>
    14a4:	80 ff       	sbrs	r24, 0
    14a6:	ec cf       	rjmp	.-40     	; 0x1480 <pulseIn+0x92>
    14a8:	a8 01       	movw	r20, r16
    14aa:	97 01       	movw	r18, r14
    14ac:	c6 01       	movw	r24, r12
    14ae:	b5 01       	movw	r22, r10
    14b0:	0e 94 af 0e 	call	0x1d5e	; 0x1d5e <__addsf3>
    14b4:	9b 01       	movw	r18, r22
    14b6:	ac 01       	movw	r20, r24
    14b8:	c6 01       	movw	r24, r12
    14ba:	b5 01       	movw	r22, r10
    14bc:	0e 94 52 0f 	call	0x1ea4	; 0x1ea4 <__divsf3>
    14c0:	20 e0       	ldi	r18, 0x00	; 0
    14c2:	30 e0       	ldi	r19, 0x00	; 0
    14c4:	48 ec       	ldi	r20, 0xC8	; 200
    14c6:	52 e4       	ldi	r21, 0x42	; 66
    14c8:	0e 94 fd 10 	call	0x21fa	; 0x21fa <__mulsf3>
    14cc:	0e 94 ba 0f 	call	0x1f74	; 0x1f74 <__fixsfsi>
    14d0:	dc 01       	movw	r26, r24
    14d2:	cb 01       	movw	r24, r22
    14d4:	df 91       	pop	r29
    14d6:	cf 91       	pop	r28
    14d8:	1f 91       	pop	r17
    14da:	0f 91       	pop	r16
    14dc:	ff 90       	pop	r15
    14de:	ef 90       	pop	r14
    14e0:	df 90       	pop	r13
    14e2:	cf 90       	pop	r12
    14e4:	bf 90       	pop	r11
    14e6:	af 90       	pop	r10
    14e8:	08 95       	ret

000014ea <get_angle>:
    14ea:	2f 92       	push	r2
    14ec:	3f 92       	push	r3
    14ee:	4f 92       	push	r4
    14f0:	5f 92       	push	r5
    14f2:	6f 92       	push	r6
    14f4:	7f 92       	push	r7
    14f6:	8f 92       	push	r8
    14f8:	9f 92       	push	r9
    14fa:	af 92       	push	r10
    14fc:	bf 92       	push	r11
    14fe:	cf 92       	push	r12
    1500:	df 92       	push	r13
    1502:	ef 92       	push	r14
    1504:	ff 92       	push	r15
    1506:	0f 93       	push	r16
    1508:	1f 93       	push	r17
    150a:	cf 93       	push	r28
    150c:	df 93       	push	r29
    150e:	cd b7       	in	r28, 0x3d	; 61
    1510:	de b7       	in	r29, 0x3e	; 62
    1512:	66 97       	sbiw	r28, 0x16	; 22
    1514:	0f b6       	in	r0, 0x3f	; 63
    1516:	f8 94       	cli
    1518:	de bf       	out	0x3e, r29	; 62
    151a:	0f be       	out	0x3f, r0	; 63
    151c:	cd bf       	out	0x3d, r28	; 61
    151e:	9e 8b       	std	Y+22, r25	; 0x16
    1520:	8d 8b       	std	Y+21, r24	; 0x15
    1522:	c9 82       	std	Y+1, r12	; 0x01
    1524:	da 82       	std	Y+2, r13	; 0x02
    1526:	eb 82       	std	Y+3, r14	; 0x03
    1528:	fc 82       	std	Y+4, r15	; 0x04
    152a:	0d 83       	std	Y+5, r16	; 0x05
    152c:	1e 83       	std	Y+6, r17	; 0x06
    152e:	2f 83       	std	Y+7, r18	; 0x07
    1530:	38 87       	std	Y+8, r19	; 0x08
    1532:	49 87       	std	Y+9, r20	; 0x09
    1534:	5a 87       	std	Y+10, r21	; 0x0a
    1536:	6b 87       	std	Y+11, r22	; 0x0b
    1538:	7c 87       	std	Y+12, r23	; 0x0c
    153a:	ad 80       	ldd	r10, Y+5	; 0x05
    153c:	be 80       	ldd	r11, Y+6	; 0x06
    153e:	cf 80       	ldd	r12, Y+7	; 0x07
    1540:	d8 84       	ldd	r13, Y+8	; 0x08
    1542:	89 85       	ldd	r24, Y+9	; 0x09
    1544:	9a 85       	ldd	r25, Y+10	; 0x0a
    1546:	ab 85       	ldd	r26, Y+11	; 0x0b
    1548:	bc 85       	ldd	r27, Y+12	; 0x0c
    154a:	8d 87       	std	Y+13, r24	; 0x0d
    154c:	9e 87       	std	Y+14, r25	; 0x0e
    154e:	af 87       	std	Y+15, r26	; 0x0f
    1550:	b8 8b       	std	Y+16, r27	; 0x10
    1552:	69 81       	ldd	r22, Y+1	; 0x01
    1554:	7a 81       	ldd	r23, Y+2	; 0x02
    1556:	8b 81       	ldd	r24, Y+3	; 0x03
    1558:	9c 81       	ldd	r25, Y+4	; 0x04
    155a:	9b 01       	movw	r18, r22
    155c:	ac 01       	movw	r20, r24
    155e:	0e 94 fd 10 	call	0x21fa	; 0x21fa <__mulsf3>
    1562:	7b 01       	movw	r14, r22
    1564:	8c 01       	movw	r16, r24
    1566:	2d 85       	ldd	r18, Y+13	; 0x0d
    1568:	3e 85       	ldd	r19, Y+14	; 0x0e
    156a:	4f 85       	ldd	r20, Y+15	; 0x0f
    156c:	58 89       	ldd	r21, Y+16	; 0x10
    156e:	ca 01       	movw	r24, r20
    1570:	b9 01       	movw	r22, r18
    1572:	0e 94 fd 10 	call	0x21fa	; 0x21fa <__mulsf3>
    1576:	9b 01       	movw	r18, r22
    1578:	ac 01       	movw	r20, r24
    157a:	c8 01       	movw	r24, r16
    157c:	b7 01       	movw	r22, r14
    157e:	0e 94 af 0e 	call	0x1d5e	; 0x1d5e <__addsf3>
    1582:	0e 94 64 11 	call	0x22c8	; 0x22c8 <sqrt>
    1586:	1b 01       	movw	r2, r22
    1588:	2c 01       	movw	r4, r24
    158a:	9b 01       	movw	r18, r22
    158c:	ac 01       	movw	r20, r24
    158e:	0e 94 fd 10 	call	0x21fa	; 0x21fa <__mulsf3>
    1592:	7b 01       	movw	r14, r22
    1594:	8c 01       	movw	r16, r24
    1596:	a6 01       	movw	r20, r12
    1598:	95 01       	movw	r18, r10
    159a:	c6 01       	movw	r24, r12
    159c:	b5 01       	movw	r22, r10
    159e:	0e 94 fd 10 	call	0x21fa	; 0x21fa <__mulsf3>
    15a2:	9b 01       	movw	r18, r22
    15a4:	ac 01       	movw	r20, r24
    15a6:	c8 01       	movw	r24, r16
    15a8:	b7 01       	movw	r22, r14
    15aa:	0e 94 af 0e 	call	0x1d5e	; 0x1d5e <__addsf3>
    15ae:	20 e0       	ldi	r18, 0x00	; 0
    15b0:	30 e0       	ldi	r19, 0x00	; 0
    15b2:	41 ee       	ldi	r20, 0xE1	; 225
    15b4:	53 e4       	ldi	r21, 0x43	; 67
    15b6:	0e 94 ae 0e 	call	0x1d5c	; 0x1d5c <__subsf3>
    15ba:	20 e0       	ldi	r18, 0x00	; 0
    15bc:	30 e0       	ldi	r19, 0x00	; 0
    15be:	41 ee       	ldi	r20, 0xE1	; 225
    15c0:	53 e4       	ldi	r21, 0x43	; 67
    15c2:	0e 94 52 0f 	call	0x1ea4	; 0x1ea4 <__divsf3>
    15c6:	7b 01       	movw	r14, r22
    15c8:	8c 01       	movw	r16, r24
    15ca:	0e 94 a0 0e 	call	0x1d40	; 0x1d40 <acos>
    15ce:	20 e0       	ldi	r18, 0x00	; 0
    15d0:	30 e0       	ldi	r19, 0x00	; 0
    15d2:	44 e3       	ldi	r20, 0x34	; 52
    15d4:	53 e4       	ldi	r21, 0x43	; 67
    15d6:	0e 94 fd 10 	call	0x21fa	; 0x21fa <__mulsf3>
    15da:	26 e5       	ldi	r18, 0x56	; 86
    15dc:	3e e0       	ldi	r19, 0x0E	; 14
    15de:	49 e4       	ldi	r20, 0x49	; 73
    15e0:	50 e4       	ldi	r21, 0x40	; 64
    15e2:	0e 94 52 0f 	call	0x1ea4	; 0x1ea4 <__divsf3>
    15e6:	69 8b       	std	Y+17, r22	; 0x11
    15e8:	7a 8b       	std	Y+18, r23	; 0x12
    15ea:	8b 8b       	std	Y+19, r24	; 0x13
    15ec:	9c 8b       	std	Y+20, r25	; 0x14
    15ee:	60 93 b8 01 	sts	0x01B8, r22
    15f2:	70 93 b9 01 	sts	0x01B9, r23
    15f6:	80 93 ba 01 	sts	0x01BA, r24
    15fa:	90 93 bb 01 	sts	0x01BB, r25
    15fe:	a2 01       	movw	r20, r4
    1600:	91 01       	movw	r18, r2
    1602:	c6 01       	movw	r24, r12
    1604:	b5 01       	movw	r22, r10
    1606:	0e 94 52 0f 	call	0x1ea4	; 0x1ea4 <__divsf3>
    160a:	0e 94 2a 0f 	call	0x1e54	; 0x1e54 <atan>
    160e:	3b 01       	movw	r6, r22
    1610:	4c 01       	movw	r8, r24
    1612:	a8 01       	movw	r20, r16
    1614:	97 01       	movw	r18, r14
    1616:	c8 01       	movw	r24, r16
    1618:	b7 01       	movw	r22, r14
    161a:	0e 94 fd 10 	call	0x21fa	; 0x21fa <__mulsf3>
    161e:	9b 01       	movw	r18, r22
    1620:	ac 01       	movw	r20, r24
    1622:	60 e0       	ldi	r22, 0x00	; 0
    1624:	70 e0       	ldi	r23, 0x00	; 0
    1626:	80 e8       	ldi	r24, 0x80	; 128
    1628:	9f e3       	ldi	r25, 0x3F	; 63
    162a:	0e 94 ae 0e 	call	0x1d5c	; 0x1d5c <__subsf3>
    162e:	0e 94 64 11 	call	0x22c8	; 0x22c8 <sqrt>
    1632:	20 e0       	ldi	r18, 0x00	; 0
    1634:	30 e0       	ldi	r19, 0x00	; 0
    1636:	40 e7       	ldi	r20, 0x70	; 112
    1638:	51 e4       	ldi	r21, 0x41	; 65
    163a:	0e 94 fd 10 	call	0x21fa	; 0x21fa <__mulsf3>
    163e:	5b 01       	movw	r10, r22
    1640:	6c 01       	movw	r12, r24
    1642:	20 e0       	ldi	r18, 0x00	; 0
    1644:	30 e0       	ldi	r19, 0x00	; 0
    1646:	40 e7       	ldi	r20, 0x70	; 112
    1648:	51 e4       	ldi	r21, 0x41	; 65
    164a:	c8 01       	movw	r24, r16
    164c:	b7 01       	movw	r22, r14
    164e:	0e 94 fd 10 	call	0x21fa	; 0x21fa <__mulsf3>
    1652:	20 e0       	ldi	r18, 0x00	; 0
    1654:	30 e0       	ldi	r19, 0x00	; 0
    1656:	40 e7       	ldi	r20, 0x70	; 112
    1658:	51 e4       	ldi	r21, 0x41	; 65
    165a:	0e 94 af 0e 	call	0x1d5e	; 0x1d5e <__addsf3>
    165e:	9b 01       	movw	r18, r22
    1660:	ac 01       	movw	r20, r24
    1662:	c6 01       	movw	r24, r12
    1664:	b5 01       	movw	r22, r10
    1666:	0e 94 52 0f 	call	0x1ea4	; 0x1ea4 <__divsf3>
    166a:	0e 94 2a 0f 	call	0x1e54	; 0x1e54 <atan>
    166e:	9b 01       	movw	r18, r22
    1670:	ac 01       	movw	r20, r24
    1672:	c4 01       	movw	r24, r8
    1674:	b3 01       	movw	r22, r6
    1676:	0e 94 ae 0e 	call	0x1d5c	; 0x1d5c <__subsf3>
    167a:	7b 01       	movw	r14, r22
    167c:	8c 01       	movw	r16, r24
    167e:	60 93 b4 01 	sts	0x01B4, r22
    1682:	70 93 b5 01 	sts	0x01B5, r23
    1686:	80 93 b6 01 	sts	0x01B6, r24
    168a:	90 93 b7 01 	sts	0x01B7, r25
    168e:	20 e0       	ldi	r18, 0x00	; 0
    1690:	30 e0       	ldi	r19, 0x00	; 0
    1692:	40 e0       	ldi	r20, 0x00	; 0
    1694:	50 e0       	ldi	r21, 0x00	; 0
    1696:	0e 94 43 10 	call	0x2086	; 0x2086 <__cmpsf2>
    169a:	88 23       	and	r24, r24
    169c:	5c f4       	brge	.+22     	; 0x16b4 <get_angle+0x1ca>
    169e:	d8 01       	movw	r26, r16
    16a0:	c7 01       	movw	r24, r14
    16a2:	b0 58       	subi	r27, 0x80	; 128
    16a4:	80 93 b4 01 	sts	0x01B4, r24
    16a8:	90 93 b5 01 	sts	0x01B5, r25
    16ac:	a0 93 b6 01 	sts	0x01B6, r26
    16b0:	b0 93 b7 01 	sts	0x01B7, r27
    16b4:	20 e0       	ldi	r18, 0x00	; 0
    16b6:	30 e0       	ldi	r19, 0x00	; 0
    16b8:	44 e3       	ldi	r20, 0x34	; 52
    16ba:	53 e4       	ldi	r21, 0x43	; 67
    16bc:	60 91 b4 01 	lds	r22, 0x01B4
    16c0:	70 91 b5 01 	lds	r23, 0x01B5
    16c4:	80 91 b6 01 	lds	r24, 0x01B6
    16c8:	90 91 b7 01 	lds	r25, 0x01B7
    16cc:	0e 94 fd 10 	call	0x21fa	; 0x21fa <__mulsf3>
    16d0:	29 ef       	ldi	r18, 0xF9	; 249
    16d2:	3f e0       	ldi	r19, 0x0F	; 15
    16d4:	49 e4       	ldi	r20, 0x49	; 73
    16d6:	50 e4       	ldi	r21, 0x40	; 64
    16d8:	0e 94 52 0f 	call	0x1ea4	; 0x1ea4 <__divsf3>
    16dc:	7b 01       	movw	r14, r22
    16de:	8c 01       	movw	r16, r24
    16e0:	60 93 b4 01 	sts	0x01B4, r22
    16e4:	70 93 b5 01 	sts	0x01B5, r23
    16e8:	80 93 b6 01 	sts	0x01B6, r24
    16ec:	90 93 b7 01 	sts	0x01B7, r25
    16f0:	a2 01       	movw	r20, r4
    16f2:	91 01       	movw	r18, r2
    16f4:	6d 85       	ldd	r22, Y+13	; 0x0d
    16f6:	7e 85       	ldd	r23, Y+14	; 0x0e
    16f8:	8f 85       	ldd	r24, Y+15	; 0x0f
    16fa:	98 89       	ldd	r25, Y+16	; 0x10
    16fc:	0e 94 52 0f 	call	0x1ea4	; 0x1ea4 <__divsf3>
    1700:	0e 94 13 0f 	call	0x1e26	; 0x1e26 <asin>
    1704:	20 e0       	ldi	r18, 0x00	; 0
    1706:	30 e0       	ldi	r19, 0x00	; 0
    1708:	44 e3       	ldi	r20, 0x34	; 52
    170a:	53 e4       	ldi	r21, 0x43	; 67
    170c:	0e 94 fd 10 	call	0x21fa	; 0x21fa <__mulsf3>
    1710:	29 ef       	ldi	r18, 0xF9	; 249
    1712:	3f e0       	ldi	r19, 0x0F	; 15
    1714:	49 e4       	ldi	r20, 0x49	; 73
    1716:	50 e4       	ldi	r21, 0x40	; 64
    1718:	0e 94 52 0f 	call	0x1ea4	; 0x1ea4 <__divsf3>
    171c:	60 93 bc 01 	sts	0x01BC, r22
    1720:	70 93 bd 01 	sts	0x01BD, r23
    1724:	80 93 be 01 	sts	0x01BE, r24
    1728:	90 93 bf 01 	sts	0x01BF, r25
    172c:	a8 01       	movw	r20, r16
    172e:	97 01       	movw	r18, r14
    1730:	69 89       	ldd	r22, Y+17	; 0x11
    1732:	7a 89       	ldd	r23, Y+18	; 0x12
    1734:	8b 89       	ldd	r24, Y+19	; 0x13
    1736:	9c 89       	ldd	r25, Y+20	; 0x14
    1738:	0e 94 ae 0e 	call	0x1d5c	; 0x1d5c <__subsf3>
    173c:	20 e0       	ldi	r18, 0x00	; 0
    173e:	30 e0       	ldi	r19, 0x00	; 0
    1740:	44 eb       	ldi	r20, 0xB4	; 180
    1742:	52 e4       	ldi	r21, 0x42	; 66
    1744:	0e 94 ae 0e 	call	0x1d5c	; 0x1d5c <__subsf3>
    1748:	60 93 c0 01 	sts	0x01C0, r22
    174c:	70 93 c1 01 	sts	0x01C1, r23
    1750:	80 93 c2 01 	sts	0x01C2, r24
    1754:	90 93 c3 01 	sts	0x01C3, r25
    1758:	61 e0       	ldi	r22, 0x01	; 1
    175a:	80 e0       	ldi	r24, 0x00	; 0
    175c:	0e 94 5c 09 	call	0x12b8	; 0x12b8 <LCDGotoXY>
    1760:	c8 01       	movw	r24, r16
    1762:	b7 01       	movw	r22, r14
    1764:	0e 94 ba 0f 	call	0x1f74	; 0x1f74 <__fixsfsi>
    1768:	dc 01       	movw	r26, r24
    176a:	cb 01       	movw	r24, r22
    176c:	65 e0       	ldi	r22, 0x05	; 5
    176e:	70 e0       	ldi	r23, 0x00	; 0
    1770:	0e 94 fb 08 	call	0x11f6	; 0x11f6 <LCDWriteInt>
    1774:	60 91 b8 01 	lds	r22, 0x01B8
    1778:	70 91 b9 01 	lds	r23, 0x01B9
    177c:	80 91 ba 01 	lds	r24, 0x01BA
    1780:	90 91 bb 01 	lds	r25, 0x01BB
    1784:	0e 94 ba 0f 	call	0x1f74	; 0x1f74 <__fixsfsi>
    1788:	7b 01       	movw	r14, r22
    178a:	8c 01       	movw	r16, r24
    178c:	61 e0       	ldi	r22, 0x01	; 1
    178e:	87 e0       	ldi	r24, 0x07	; 7
    1790:	0e 94 5c 09 	call	0x12b8	; 0x12b8 <LCDGotoXY>
    1794:	65 e0       	ldi	r22, 0x05	; 5
    1796:	70 e0       	ldi	r23, 0x00	; 0
    1798:	c7 01       	movw	r24, r14
    179a:	0e 94 fb 08 	call	0x11f6	; 0x11f6 <LCDWriteInt>
    179e:	60 e0       	ldi	r22, 0x00	; 0
    17a0:	87 e0       	ldi	r24, 0x07	; 7
    17a2:	0e 94 5c 09 	call	0x12b8	; 0x12b8 <LCDGotoXY>
    17a6:	60 91 bc 01 	lds	r22, 0x01BC
    17aa:	70 91 bd 01 	lds	r23, 0x01BD
    17ae:	80 91 be 01 	lds	r24, 0x01BE
    17b2:	90 91 bf 01 	lds	r25, 0x01BF
    17b6:	0e 94 ba 0f 	call	0x1f74	; 0x1f74 <__fixsfsi>
    17ba:	dc 01       	movw	r26, r24
    17bc:	cb 01       	movw	r24, r22
    17be:	65 e0       	ldi	r22, 0x05	; 5
    17c0:	70 e0       	ldi	r23, 0x00	; 0
    17c2:	0e 94 fb 08 	call	0x11f6	; 0x11f6 <LCDWriteInt>
    17c6:	60 e0       	ldi	r22, 0x00	; 0
    17c8:	80 e0       	ldi	r24, 0x00	; 0
    17ca:	0e 94 5c 09 	call	0x12b8	; 0x12b8 <LCDGotoXY>
    17ce:	c2 01       	movw	r24, r4
    17d0:	b1 01       	movw	r22, r2
    17d2:	0e 94 ba 0f 	call	0x1f74	; 0x1f74 <__fixsfsi>
    17d6:	dc 01       	movw	r26, r24
    17d8:	cb 01       	movw	r24, r22
    17da:	65 e0       	ldi	r22, 0x05	; 5
    17dc:	70 e0       	ldi	r23, 0x00	; 0
    17de:	0e 94 fb 08 	call	0x11f6	; 0x11f6 <LCDWriteInt>
    17e2:	ed 89       	ldd	r30, Y+21	; 0x15
    17e4:	fe 89       	ldd	r31, Y+22	; 0x16
    17e6:	a4 eb       	ldi	r26, 0xB4	; 180
    17e8:	b1 e0       	ldi	r27, 0x01	; 1
    17ea:	80 e1       	ldi	r24, 0x10	; 16
    17ec:	0d 90       	ld	r0, X+
    17ee:	01 92       	st	Z+, r0
    17f0:	81 50       	subi	r24, 0x01	; 1
    17f2:	e1 f7       	brne	.-8      	; 0x17ec <get_angle+0x302>
    17f4:	8d 89       	ldd	r24, Y+21	; 0x15
    17f6:	9e 89       	ldd	r25, Y+22	; 0x16
    17f8:	66 96       	adiw	r28, 0x16	; 22
    17fa:	0f b6       	in	r0, 0x3f	; 63
    17fc:	f8 94       	cli
    17fe:	de bf       	out	0x3e, r29	; 62
    1800:	0f be       	out	0x3f, r0	; 63
    1802:	cd bf       	out	0x3d, r28	; 61
    1804:	df 91       	pop	r29
    1806:	cf 91       	pop	r28
    1808:	1f 91       	pop	r17
    180a:	0f 91       	pop	r16
    180c:	ff 90       	pop	r15
    180e:	ef 90       	pop	r14
    1810:	df 90       	pop	r13
    1812:	cf 90       	pop	r12
    1814:	bf 90       	pop	r11
    1816:	af 90       	pop	r10
    1818:	9f 90       	pop	r9
    181a:	8f 90       	pop	r8
    181c:	7f 90       	pop	r7
    181e:	6f 90       	pop	r6
    1820:	5f 90       	pop	r5
    1822:	4f 90       	pop	r4
    1824:	3f 90       	pop	r3
    1826:	2f 90       	pop	r2
    1828:	08 95       	ret

0000182a <move>:
    182a:	af 92       	push	r10
    182c:	bf 92       	push	r11
    182e:	cf 92       	push	r12
    1830:	df 92       	push	r13
    1832:	ef 92       	push	r14
    1834:	ff 92       	push	r15
    1836:	0f 93       	push	r16
    1838:	1f 93       	push	r17
    183a:	cf 93       	push	r28
    183c:	df 93       	push	r29
    183e:	cd b7       	in	r28, 0x3d	; 61
    1840:	de b7       	in	r29, 0x3e	; 62
    1842:	60 97       	sbiw	r28, 0x10	; 16
    1844:	0f b6       	in	r0, 0x3f	; 63
    1846:	f8 94       	cli
    1848:	de bf       	out	0x3e, r29	; 62
    184a:	0f be       	out	0x3f, r0	; 63
    184c:	cd bf       	out	0x3d, r28	; 61
    184e:	7b 01       	movw	r14, r22
    1850:	5a 01       	movw	r10, r20
    1852:	21 b3       	in	r18, 0x11	; 17
    1854:	3f ef       	ldi	r19, 0xFF	; 255
    1856:	31 bb       	out	0x11, r19	; 17
    1858:	2a b3       	in	r18, 0x1a	; 26
    185a:	2a bb       	out	0x1a, r18	; 26
    185c:	27 b3       	in	r18, 0x17	; 23
    185e:	37 bb       	out	0x17, r19	; 23
    1860:	24 b3       	in	r18, 0x14	; 20
    1862:	34 bb       	out	0x14, r19	; 20
    1864:	aa 27       	eor	r26, r26
    1866:	97 fd       	sbrc	r25, 7
    1868:	a0 95       	com	r26
    186a:	ba 2f       	mov	r27, r26
    186c:	bc 01       	movw	r22, r24
    186e:	cd 01       	movw	r24, r26
    1870:	0e 94 ed 0f 	call	0x1fda	; 0x1fda <__floatsisf>
    1874:	60 93 a8 01 	sts	0x01A8, r22
    1878:	70 93 a9 01 	sts	0x01A9, r23
    187c:	80 93 aa 01 	sts	0x01AA, r24
    1880:	90 93 ab 01 	sts	0x01AB, r25
    1884:	00 27       	eor	r16, r16
    1886:	f7 fc       	sbrc	r15, 7
    1888:	00 95       	com	r16
    188a:	10 2f       	mov	r17, r16
    188c:	c8 01       	movw	r24, r16
    188e:	b7 01       	movw	r22, r14
    1890:	0e 94 ed 0f 	call	0x1fda	; 0x1fda <__floatsisf>
    1894:	60 93 ac 01 	sts	0x01AC, r22
    1898:	70 93 ad 01 	sts	0x01AD, r23
    189c:	80 93 ae 01 	sts	0x01AE, r24
    18a0:	90 93 af 01 	sts	0x01AF, r25
    18a4:	cc 24       	eor	r12, r12
    18a6:	b7 fc       	sbrc	r11, 7
    18a8:	c0 94       	com	r12
    18aa:	dc 2c       	mov	r13, r12
    18ac:	c6 01       	movw	r24, r12
    18ae:	b5 01       	movw	r22, r10
    18b0:	0e 94 ed 0f 	call	0x1fda	; 0x1fda <__floatsisf>
    18b4:	60 93 b0 01 	sts	0x01B0, r22
    18b8:	70 93 b1 01 	sts	0x01B1, r23
    18bc:	80 93 b2 01 	sts	0x01B2, r24
    18c0:	90 93 b3 01 	sts	0x01B3, r25
    18c4:	c0 90 a8 01 	lds	r12, 0x01A8
    18c8:	d0 90 a9 01 	lds	r13, 0x01A9
    18cc:	e0 90 aa 01 	lds	r14, 0x01AA
    18d0:	f0 90 ab 01 	lds	r15, 0x01AB
    18d4:	00 91 ac 01 	lds	r16, 0x01AC
    18d8:	10 91 ad 01 	lds	r17, 0x01AD
    18dc:	20 91 ae 01 	lds	r18, 0x01AE
    18e0:	30 91 af 01 	lds	r19, 0x01AF
    18e4:	40 91 b0 01 	lds	r20, 0x01B0
    18e8:	50 91 b1 01 	lds	r21, 0x01B1
    18ec:	60 91 b2 01 	lds	r22, 0x01B2
    18f0:	70 91 b3 01 	lds	r23, 0x01B3
    18f4:	5e 01       	movw	r10, r28
    18f6:	08 94       	sec
    18f8:	a1 1c       	adc	r10, r1
    18fa:	b1 1c       	adc	r11, r1
    18fc:	c5 01       	movw	r24, r10
    18fe:	0e 94 75 0a 	call	0x14ea	; 0x14ea <get_angle>
    1902:	a4 eb       	ldi	r26, 0xB4	; 180
    1904:	b1 e0       	ldi	r27, 0x01	; 1
    1906:	f5 01       	movw	r30, r10
    1908:	80 e1       	ldi	r24, 0x10	; 16
    190a:	01 90       	ld	r0, Z+
    190c:	0d 92       	st	X+, r0
    190e:	81 50       	subi	r24, 0x01	; 1
    1910:	e1 f7       	brne	.-8      	; 0x190a <move+0xe0>
    1912:	20 91 bc 01 	lds	r18, 0x01BC
    1916:	30 91 bd 01 	lds	r19, 0x01BD
    191a:	40 91 be 01 	lds	r20, 0x01BE
    191e:	50 91 bf 01 	lds	r21, 0x01BF
    1922:	60 e0       	ldi	r22, 0x00	; 0
    1924:	70 e0       	ldi	r23, 0x00	; 0
    1926:	84 eb       	ldi	r24, 0xB4	; 180
    1928:	92 e4       	ldi	r25, 0x42	; 66
    192a:	0e 94 ae 0e 	call	0x1d5c	; 0x1d5c <__subsf3>
    192e:	7b 01       	movw	r14, r22
    1930:	8c 01       	movw	r16, r24
    1932:	20 e0       	ldi	r18, 0x00	; 0
    1934:	30 e0       	ldi	r19, 0x00	; 0
    1936:	40 e8       	ldi	r20, 0x80	; 128
    1938:	5f e3       	ldi	r21, 0x3F	; 63
    193a:	0e 94 47 10 	call	0x208e	; 0x208e <__gesf2>
    193e:	18 16       	cp	r1, r24
    1940:	44 f4       	brge	.+16     	; 0x1952 <move+0x128>
    1942:	c8 01       	movw	r24, r16
    1944:	b7 01       	movw	r22, r14
    1946:	0e 94 ba 0f 	call	0x1f74	; 0x1f74 <__fixsfsi>
    194a:	dc 01       	movw	r26, r24
    194c:	cb 01       	movw	r24, r22
    194e:	0e 94 53 08 	call	0x10a6	; 0x10a6 <Timer_0>
    1952:	e0 90 b4 01 	lds	r14, 0x01B4
    1956:	f0 90 b5 01 	lds	r15, 0x01B5
    195a:	00 91 b6 01 	lds	r16, 0x01B6
    195e:	10 91 b7 01 	lds	r17, 0x01B7
    1962:	20 e0       	ldi	r18, 0x00	; 0
    1964:	30 e0       	ldi	r19, 0x00	; 0
    1966:	40 e8       	ldi	r20, 0x80	; 128
    1968:	5f e3       	ldi	r21, 0x3F	; 63
    196a:	c8 01       	movw	r24, r16
    196c:	b7 01       	movw	r22, r14
    196e:	0e 94 47 10 	call	0x208e	; 0x208e <__gesf2>
    1972:	18 16       	cp	r1, r24
    1974:	44 f4       	brge	.+16     	; 0x1986 <move+0x15c>
    1976:	c8 01       	movw	r24, r16
    1978:	b7 01       	movw	r22, r14
    197a:	0e 94 ba 0f 	call	0x1f74	; 0x1f74 <__fixsfsi>
    197e:	dc 01       	movw	r26, r24
    1980:	cb 01       	movw	r24, r22
    1982:	0e 94 36 08 	call	0x106c	; 0x106c <Timer_1A>
    1986:	e0 90 b8 01 	lds	r14, 0x01B8
    198a:	f0 90 b9 01 	lds	r15, 0x01B9
    198e:	00 91 ba 01 	lds	r16, 0x01BA
    1992:	10 91 bb 01 	lds	r17, 0x01BB
    1996:	20 e0       	ldi	r18, 0x00	; 0
    1998:	30 e0       	ldi	r19, 0x00	; 0
    199a:	40 e8       	ldi	r20, 0x80	; 128
    199c:	5f e3       	ldi	r21, 0x3F	; 63
    199e:	c8 01       	movw	r24, r16
    19a0:	b7 01       	movw	r22, r14
    19a2:	0e 94 47 10 	call	0x208e	; 0x208e <__gesf2>
    19a6:	18 16       	cp	r1, r24
    19a8:	44 f4       	brge	.+16     	; 0x19ba <move+0x190>
    19aa:	c8 01       	movw	r24, r16
    19ac:	b7 01       	movw	r22, r14
    19ae:	0e 94 ba 0f 	call	0x1f74	; 0x1f74 <__fixsfsi>
    19b2:	dc 01       	movw	r26, r24
    19b4:	cb 01       	movw	r24, r22
    19b6:	0e 94 46 08 	call	0x108c	; 0x108c <Timer_1B>
    19ba:	60 96       	adiw	r28, 0x10	; 16
    19bc:	0f b6       	in	r0, 0x3f	; 63
    19be:	f8 94       	cli
    19c0:	de bf       	out	0x3e, r29	; 62
    19c2:	0f be       	out	0x3f, r0	; 63
    19c4:	cd bf       	out	0x3d, r28	; 61
    19c6:	df 91       	pop	r29
    19c8:	cf 91       	pop	r28
    19ca:	1f 91       	pop	r17
    19cc:	0f 91       	pop	r16
    19ce:	ff 90       	pop	r15
    19d0:	ef 90       	pop	r14
    19d2:	df 90       	pop	r13
    19d4:	cf 90       	pop	r12
    19d6:	bf 90       	pop	r11
    19d8:	af 90       	pop	r10
    19da:	08 95       	ret

000019dc <SPI_SlaveInit>:
    19dc:	80 e4       	ldi	r24, 0x40	; 64
    19de:	87 bb       	out	0x17, r24	; 23
    19e0:	8d b9       	out	0x0d, r24	; 13
    19e2:	08 95       	ret

000019e4 <SPI_SlaveReceive>:
    19e4:	77 9b       	sbis	0x0e, 7	; 14
    19e6:	fe cf       	rjmp	.-4      	; 0x19e4 <SPI_SlaveReceive>
    19e8:	8f b1       	in	r24, 0x0f	; 15
    19ea:	90 e0       	ldi	r25, 0x00	; 0
    19ec:	08 95       	ret

000019ee <SPI_MasterInit>:
    19ee:	80 ea       	ldi	r24, 0xA0	; 160
    19f0:	87 bb       	out	0x17, r24	; 23
    19f2:	81 e5       	ldi	r24, 0x51	; 81
    19f4:	8d b9       	out	0x0d, r24	; 13
    19f6:	08 95       	ret

000019f8 <SPI_MasterTransmit>:
    19f8:	8f b9       	out	0x0f, r24	; 15
    19fa:	77 9b       	sbis	0x0e, 7	; 14
    19fc:	fe cf       	rjmp	.-4      	; 0x19fa <SPI_MasterTransmit+0x2>
    19fe:	08 95       	ret

00001a00 <__floatunsisf>:
    1a00:	a8 e0       	ldi	r26, 0x08	; 8
    1a02:	b0 e0       	ldi	r27, 0x00	; 0
    1a04:	e6 e0       	ldi	r30, 0x06	; 6
    1a06:	fd e0       	ldi	r31, 0x0D	; 13
    1a08:	0c 94 05 12 	jmp	0x240a	; 0x240a <__prologue_saves__+0x14>
    1a0c:	7b 01       	movw	r14, r22
    1a0e:	8c 01       	movw	r16, r24
    1a10:	61 15       	cp	r22, r1
    1a12:	71 05       	cpc	r23, r1
    1a14:	81 05       	cpc	r24, r1
    1a16:	91 05       	cpc	r25, r1
    1a18:	19 f4       	brne	.+6      	; 0x1a20 <__floatunsisf+0x20>
    1a1a:	82 e0       	ldi	r24, 0x02	; 2
    1a1c:	89 83       	std	Y+1, r24	; 0x01
    1a1e:	5a c0       	rjmp	.+180    	; 0x1ad4 <__floatunsisf+0xd4>
    1a20:	83 e0       	ldi	r24, 0x03	; 3
    1a22:	89 83       	std	Y+1, r24	; 0x01
    1a24:	8e e1       	ldi	r24, 0x1E	; 30
    1a26:	c8 2e       	mov	r12, r24
    1a28:	d1 2c       	mov	r13, r1
    1a2a:	dc 82       	std	Y+4, r13	; 0x04
    1a2c:	cb 82       	std	Y+3, r12	; 0x03
    1a2e:	ed 82       	std	Y+5, r14	; 0x05
    1a30:	fe 82       	std	Y+6, r15	; 0x06
    1a32:	0f 83       	std	Y+7, r16	; 0x07
    1a34:	18 87       	std	Y+8, r17	; 0x08
    1a36:	c8 01       	movw	r24, r16
    1a38:	b7 01       	movw	r22, r14
    1a3a:	0e 94 73 0d 	call	0x1ae6	; 0x1ae6 <__clzsi2>
    1a3e:	bc 01       	movw	r22, r24
    1a40:	61 50       	subi	r22, 0x01	; 1
    1a42:	70 40       	sbci	r23, 0x00	; 0
    1a44:	77 ff       	sbrs	r23, 7
    1a46:	33 c0       	rjmp	.+102    	; 0x1aae <__floatunsisf+0xae>
    1a48:	ee 27       	eor	r30, r30
    1a4a:	ff 27       	eor	r31, r31
    1a4c:	e6 1b       	sub	r30, r22
    1a4e:	f7 0b       	sbc	r31, r23
    1a50:	20 e0       	ldi	r18, 0x00	; 0
    1a52:	30 e0       	ldi	r19, 0x00	; 0
    1a54:	40 e0       	ldi	r20, 0x00	; 0
    1a56:	50 e0       	ldi	r21, 0x00	; 0
    1a58:	81 e0       	ldi	r24, 0x01	; 1
    1a5a:	90 e0       	ldi	r25, 0x00	; 0
    1a5c:	a0 e0       	ldi	r26, 0x00	; 0
    1a5e:	b0 e0       	ldi	r27, 0x00	; 0
    1a60:	0e 2e       	mov	r0, r30
    1a62:	04 c0       	rjmp	.+8      	; 0x1a6c <__floatunsisf+0x6c>
    1a64:	88 0f       	add	r24, r24
    1a66:	99 1f       	adc	r25, r25
    1a68:	aa 1f       	adc	r26, r26
    1a6a:	bb 1f       	adc	r27, r27
    1a6c:	0a 94       	dec	r0
    1a6e:	d2 f7       	brpl	.-12     	; 0x1a64 <__floatunsisf+0x64>
    1a70:	01 97       	sbiw	r24, 0x01	; 1
    1a72:	a1 09       	sbc	r26, r1
    1a74:	b1 09       	sbc	r27, r1
    1a76:	8e 21       	and	r24, r14
    1a78:	9f 21       	and	r25, r15
    1a7a:	a0 23       	and	r26, r16
    1a7c:	b1 23       	and	r27, r17
    1a7e:	00 97       	sbiw	r24, 0x00	; 0
    1a80:	a1 05       	cpc	r26, r1
    1a82:	b1 05       	cpc	r27, r1
    1a84:	21 f0       	breq	.+8      	; 0x1a8e <__floatunsisf+0x8e>
    1a86:	21 e0       	ldi	r18, 0x01	; 1
    1a88:	30 e0       	ldi	r19, 0x00	; 0
    1a8a:	40 e0       	ldi	r20, 0x00	; 0
    1a8c:	50 e0       	ldi	r21, 0x00	; 0
    1a8e:	04 c0       	rjmp	.+8      	; 0x1a98 <__floatunsisf+0x98>
    1a90:	16 95       	lsr	r17
    1a92:	07 95       	ror	r16
    1a94:	f7 94       	ror	r15
    1a96:	e7 94       	ror	r14
    1a98:	ea 95       	dec	r30
    1a9a:	d2 f7       	brpl	.-12     	; 0x1a90 <__floatunsisf+0x90>
    1a9c:	2e 29       	or	r18, r14
    1a9e:	3f 29       	or	r19, r15
    1aa0:	40 2b       	or	r20, r16
    1aa2:	51 2b       	or	r21, r17
    1aa4:	2d 83       	std	Y+5, r18	; 0x05
    1aa6:	3e 83       	std	Y+6, r19	; 0x06
    1aa8:	4f 83       	std	Y+7, r20	; 0x07
    1aaa:	58 87       	std	Y+8, r21	; 0x08
    1aac:	0f c0       	rjmp	.+30     	; 0x1acc <__floatunsisf+0xcc>
    1aae:	61 15       	cp	r22, r1
    1ab0:	71 05       	cpc	r23, r1
    1ab2:	81 f0       	breq	.+32     	; 0x1ad4 <__floatunsisf+0xd4>
    1ab4:	06 2e       	mov	r0, r22
    1ab6:	04 c0       	rjmp	.+8      	; 0x1ac0 <__floatunsisf+0xc0>
    1ab8:	ee 0c       	add	r14, r14
    1aba:	ff 1c       	adc	r15, r15
    1abc:	00 1f       	adc	r16, r16
    1abe:	11 1f       	adc	r17, r17
    1ac0:	0a 94       	dec	r0
    1ac2:	d2 f7       	brpl	.-12     	; 0x1ab8 <__floatunsisf+0xb8>
    1ac4:	ed 82       	std	Y+5, r14	; 0x05
    1ac6:	fe 82       	std	Y+6, r15	; 0x06
    1ac8:	0f 83       	std	Y+7, r16	; 0x07
    1aca:	18 87       	std	Y+8, r17	; 0x08
    1acc:	c6 1a       	sub	r12, r22
    1ace:	d7 0a       	sbc	r13, r23
    1ad0:	dc 82       	std	Y+4, r13	; 0x04
    1ad2:	cb 82       	std	Y+3, r12	; 0x03
    1ad4:	1a 82       	std	Y+2, r1	; 0x02
    1ad6:	ce 01       	movw	r24, r28
    1ad8:	01 96       	adiw	r24, 0x01	; 1
    1ada:	0e 94 c0 0d 	call	0x1b80	; 0x1b80 <__pack_f>
    1ade:	e8 e0       	ldi	r30, 0x08	; 8
    1ae0:	28 96       	adiw	r28, 0x08	; 8
    1ae2:	0c 94 21 12 	jmp	0x2442	; 0x2442 <__epilogue_restores__+0x14>

00001ae6 <__clzsi2>:
    1ae6:	ef 92       	push	r14
    1ae8:	ff 92       	push	r15
    1aea:	0f 93       	push	r16
    1aec:	1f 93       	push	r17
    1aee:	9b 01       	movw	r18, r22
    1af0:	ac 01       	movw	r20, r24
    1af2:	20 30       	cpi	r18, 0x00	; 0
    1af4:	80 e0       	ldi	r24, 0x00	; 0
    1af6:	38 07       	cpc	r19, r24
    1af8:	81 e0       	ldi	r24, 0x01	; 1
    1afa:	48 07       	cpc	r20, r24
    1afc:	80 e0       	ldi	r24, 0x00	; 0
    1afe:	58 07       	cpc	r21, r24
    1b00:	80 f4       	brcc	.+32     	; 0x1b22 <__clzsi2+0x3c>
    1b02:	2f 3f       	cpi	r18, 0xFF	; 255
    1b04:	31 05       	cpc	r19, r1
    1b06:	41 05       	cpc	r20, r1
    1b08:	51 05       	cpc	r21, r1
    1b0a:	09 f0       	breq	.+2      	; 0x1b0e <__clzsi2+0x28>
    1b0c:	20 f4       	brcc	.+8      	; 0x1b16 <__clzsi2+0x30>
    1b0e:	ee 24       	eor	r14, r14
    1b10:	ff 24       	eor	r15, r15
    1b12:	87 01       	movw	r16, r14
    1b14:	19 c0       	rjmp	.+50     	; 0x1b48 <__clzsi2+0x62>
    1b16:	68 e0       	ldi	r22, 0x08	; 8
    1b18:	e6 2e       	mov	r14, r22
    1b1a:	f1 2c       	mov	r15, r1
    1b1c:	01 2d       	mov	r16, r1
    1b1e:	11 2d       	mov	r17, r1
    1b20:	13 c0       	rjmp	.+38     	; 0x1b48 <__clzsi2+0x62>
    1b22:	20 30       	cpi	r18, 0x00	; 0
    1b24:	80 e0       	ldi	r24, 0x00	; 0
    1b26:	38 07       	cpc	r19, r24
    1b28:	80 e0       	ldi	r24, 0x00	; 0
    1b2a:	48 07       	cpc	r20, r24
    1b2c:	81 e0       	ldi	r24, 0x01	; 1
    1b2e:	58 07       	cpc	r21, r24
    1b30:	30 f4       	brcc	.+12     	; 0x1b3e <__clzsi2+0x58>
    1b32:	90 e1       	ldi	r25, 0x10	; 16
    1b34:	e9 2e       	mov	r14, r25
    1b36:	f1 2c       	mov	r15, r1
    1b38:	01 2d       	mov	r16, r1
    1b3a:	11 2d       	mov	r17, r1
    1b3c:	05 c0       	rjmp	.+10     	; 0x1b48 <__clzsi2+0x62>
    1b3e:	88 e1       	ldi	r24, 0x18	; 24
    1b40:	e8 2e       	mov	r14, r24
    1b42:	f1 2c       	mov	r15, r1
    1b44:	01 2d       	mov	r16, r1
    1b46:	11 2d       	mov	r17, r1
    1b48:	80 e2       	ldi	r24, 0x20	; 32
    1b4a:	90 e0       	ldi	r25, 0x00	; 0
    1b4c:	a0 e0       	ldi	r26, 0x00	; 0
    1b4e:	b0 e0       	ldi	r27, 0x00	; 0
    1b50:	8e 19       	sub	r24, r14
    1b52:	9f 09       	sbc	r25, r15
    1b54:	a0 0b       	sbc	r26, r16
    1b56:	b1 0b       	sbc	r27, r17
    1b58:	04 c0       	rjmp	.+8      	; 0x1b62 <__clzsi2+0x7c>
    1b5a:	56 95       	lsr	r21
    1b5c:	47 95       	ror	r20
    1b5e:	37 95       	ror	r19
    1b60:	27 95       	ror	r18
    1b62:	ea 94       	dec	r14
    1b64:	d2 f7       	brpl	.-12     	; 0x1b5a <__clzsi2+0x74>
    1b66:	f9 01       	movw	r30, r18
    1b68:	e0 56       	subi	r30, 0x60	; 96
    1b6a:	ff 4f       	sbci	r31, 0xFF	; 255
    1b6c:	20 81       	ld	r18, Z
    1b6e:	82 1b       	sub	r24, r18
    1b70:	91 09       	sbc	r25, r1
    1b72:	a1 09       	sbc	r26, r1
    1b74:	b1 09       	sbc	r27, r1
    1b76:	1f 91       	pop	r17
    1b78:	0f 91       	pop	r16
    1b7a:	ff 90       	pop	r15
    1b7c:	ef 90       	pop	r14
    1b7e:	08 95       	ret

00001b80 <__pack_f>:
    1b80:	9f 92       	push	r9
    1b82:	af 92       	push	r10
    1b84:	bf 92       	push	r11
    1b86:	cf 92       	push	r12
    1b88:	df 92       	push	r13
    1b8a:	ef 92       	push	r14
    1b8c:	ff 92       	push	r15
    1b8e:	0f 93       	push	r16
    1b90:	1f 93       	push	r17
    1b92:	ee 24       	eor	r14, r14
    1b94:	ff 24       	eor	r15, r15
    1b96:	87 01       	movw	r16, r14
    1b98:	fc 01       	movw	r30, r24
    1b9a:	24 81       	ldd	r18, Z+4	; 0x04
    1b9c:	35 81       	ldd	r19, Z+5	; 0x05
    1b9e:	46 81       	ldd	r20, Z+6	; 0x06
    1ba0:	57 81       	ldd	r21, Z+7	; 0x07
    1ba2:	91 80       	ldd	r9, Z+1	; 0x01
    1ba4:	80 81       	ld	r24, Z
    1ba6:	82 30       	cpi	r24, 0x02	; 2
    1ba8:	10 f4       	brcc	.+4      	; 0x1bae <__pack_f+0x2e>
    1baa:	40 61       	ori	r20, 0x10	; 16
    1bac:	a2 c0       	rjmp	.+324    	; 0x1cf2 <__pack_f+0x172>
    1bae:	84 30       	cpi	r24, 0x04	; 4
    1bb0:	09 f4       	brne	.+2      	; 0x1bb4 <__pack_f+0x34>
    1bb2:	9b c0       	rjmp	.+310    	; 0x1cea <__pack_f+0x16a>
    1bb4:	82 30       	cpi	r24, 0x02	; 2
    1bb6:	29 f4       	brne	.+10     	; 0x1bc2 <__pack_f+0x42>
    1bb8:	20 e0       	ldi	r18, 0x00	; 0
    1bba:	30 e0       	ldi	r19, 0x00	; 0
    1bbc:	40 e0       	ldi	r20, 0x00	; 0
    1bbe:	50 e0       	ldi	r21, 0x00	; 0
    1bc0:	05 c0       	rjmp	.+10     	; 0x1bcc <__pack_f+0x4c>
    1bc2:	21 15       	cp	r18, r1
    1bc4:	31 05       	cpc	r19, r1
    1bc6:	41 05       	cpc	r20, r1
    1bc8:	51 05       	cpc	r21, r1
    1bca:	19 f4       	brne	.+6      	; 0x1bd2 <__pack_f+0x52>
    1bcc:	e0 e0       	ldi	r30, 0x00	; 0
    1bce:	f0 e0       	ldi	r31, 0x00	; 0
    1bd0:	92 c0       	rjmp	.+292    	; 0x1cf6 <__pack_f+0x176>
    1bd2:	82 81       	ldd	r24, Z+2	; 0x02
    1bd4:	93 81       	ldd	r25, Z+3	; 0x03
    1bd6:	6f ef       	ldi	r22, 0xFF	; 255
    1bd8:	82 38       	cpi	r24, 0x82	; 130
    1bda:	96 07       	cpc	r25, r22
    1bdc:	0c f0       	brlt	.+2      	; 0x1be0 <__pack_f+0x60>
    1bde:	5a c0       	rjmp	.+180    	; 0x1c94 <__pack_f+0x114>
    1be0:	62 e8       	ldi	r22, 0x82	; 130
    1be2:	7f ef       	ldi	r23, 0xFF	; 255
    1be4:	68 1b       	sub	r22, r24
    1be6:	79 0b       	sbc	r23, r25
    1be8:	6a 31       	cpi	r22, 0x1A	; 26
    1bea:	71 05       	cpc	r23, r1
    1bec:	2c f0       	brlt	.+10     	; 0x1bf8 <__pack_f+0x78>
    1bee:	20 e0       	ldi	r18, 0x00	; 0
    1bf0:	30 e0       	ldi	r19, 0x00	; 0
    1bf2:	40 e0       	ldi	r20, 0x00	; 0
    1bf4:	50 e0       	ldi	r21, 0x00	; 0
    1bf6:	2a c0       	rjmp	.+84     	; 0x1c4c <__pack_f+0xcc>
    1bf8:	aa 24       	eor	r10, r10
    1bfa:	bb 24       	eor	r11, r11
    1bfc:	65 01       	movw	r12, r10
    1bfe:	81 e0       	ldi	r24, 0x01	; 1
    1c00:	90 e0       	ldi	r25, 0x00	; 0
    1c02:	a0 e0       	ldi	r26, 0x00	; 0
    1c04:	b0 e0       	ldi	r27, 0x00	; 0
    1c06:	06 2e       	mov	r0, r22
    1c08:	04 c0       	rjmp	.+8      	; 0x1c12 <__pack_f+0x92>
    1c0a:	88 0f       	add	r24, r24
    1c0c:	99 1f       	adc	r25, r25
    1c0e:	aa 1f       	adc	r26, r26
    1c10:	bb 1f       	adc	r27, r27
    1c12:	0a 94       	dec	r0
    1c14:	d2 f7       	brpl	.-12     	; 0x1c0a <__pack_f+0x8a>
    1c16:	01 97       	sbiw	r24, 0x01	; 1
    1c18:	a1 09       	sbc	r26, r1
    1c1a:	b1 09       	sbc	r27, r1
    1c1c:	82 23       	and	r24, r18
    1c1e:	93 23       	and	r25, r19
    1c20:	a4 23       	and	r26, r20
    1c22:	b5 23       	and	r27, r21
    1c24:	00 97       	sbiw	r24, 0x00	; 0
    1c26:	a1 05       	cpc	r26, r1
    1c28:	b1 05       	cpc	r27, r1
    1c2a:	29 f0       	breq	.+10     	; 0x1c36 <__pack_f+0xb6>
    1c2c:	71 e0       	ldi	r23, 0x01	; 1
    1c2e:	a7 2e       	mov	r10, r23
    1c30:	b1 2c       	mov	r11, r1
    1c32:	c1 2c       	mov	r12, r1
    1c34:	d1 2c       	mov	r13, r1
    1c36:	04 c0       	rjmp	.+8      	; 0x1c40 <__pack_f+0xc0>
    1c38:	56 95       	lsr	r21
    1c3a:	47 95       	ror	r20
    1c3c:	37 95       	ror	r19
    1c3e:	27 95       	ror	r18
    1c40:	6a 95       	dec	r22
    1c42:	d2 f7       	brpl	.-12     	; 0x1c38 <__pack_f+0xb8>
    1c44:	2a 29       	or	r18, r10
    1c46:	3b 29       	or	r19, r11
    1c48:	4c 29       	or	r20, r12
    1c4a:	5d 29       	or	r21, r13
    1c4c:	da 01       	movw	r26, r20
    1c4e:	c9 01       	movw	r24, r18
    1c50:	8f 77       	andi	r24, 0x7F	; 127
    1c52:	90 70       	andi	r25, 0x00	; 0
    1c54:	a0 70       	andi	r26, 0x00	; 0
    1c56:	b0 70       	andi	r27, 0x00	; 0
    1c58:	80 34       	cpi	r24, 0x40	; 64
    1c5a:	91 05       	cpc	r25, r1
    1c5c:	a1 05       	cpc	r26, r1
    1c5e:	b1 05       	cpc	r27, r1
    1c60:	39 f4       	brne	.+14     	; 0x1c70 <__pack_f+0xf0>
    1c62:	27 ff       	sbrs	r18, 7
    1c64:	09 c0       	rjmp	.+18     	; 0x1c78 <__pack_f+0xf8>
    1c66:	20 5c       	subi	r18, 0xC0	; 192
    1c68:	3f 4f       	sbci	r19, 0xFF	; 255
    1c6a:	4f 4f       	sbci	r20, 0xFF	; 255
    1c6c:	5f 4f       	sbci	r21, 0xFF	; 255
    1c6e:	04 c0       	rjmp	.+8      	; 0x1c78 <__pack_f+0xf8>
    1c70:	21 5c       	subi	r18, 0xC1	; 193
    1c72:	3f 4f       	sbci	r19, 0xFF	; 255
    1c74:	4f 4f       	sbci	r20, 0xFF	; 255
    1c76:	5f 4f       	sbci	r21, 0xFF	; 255
    1c78:	80 e0       	ldi	r24, 0x00	; 0
    1c7a:	90 e0       	ldi	r25, 0x00	; 0
    1c7c:	20 30       	cpi	r18, 0x00	; 0
    1c7e:	60 e0       	ldi	r22, 0x00	; 0
    1c80:	36 07       	cpc	r19, r22
    1c82:	60 e0       	ldi	r22, 0x00	; 0
    1c84:	46 07       	cpc	r20, r22
    1c86:	60 e4       	ldi	r22, 0x40	; 64
    1c88:	56 07       	cpc	r21, r22
    1c8a:	10 f0       	brcs	.+4      	; 0x1c90 <__pack_f+0x110>
    1c8c:	81 e0       	ldi	r24, 0x01	; 1
    1c8e:	90 e0       	ldi	r25, 0x00	; 0
    1c90:	fc 01       	movw	r30, r24
    1c92:	23 c0       	rjmp	.+70     	; 0x1cda <__pack_f+0x15a>
    1c94:	80 38       	cpi	r24, 0x80	; 128
    1c96:	91 05       	cpc	r25, r1
    1c98:	44 f5       	brge	.+80     	; 0x1cea <__pack_f+0x16a>
    1c9a:	fc 01       	movw	r30, r24
    1c9c:	e1 58       	subi	r30, 0x81	; 129
    1c9e:	ff 4f       	sbci	r31, 0xFF	; 255
    1ca0:	da 01       	movw	r26, r20
    1ca2:	c9 01       	movw	r24, r18
    1ca4:	8f 77       	andi	r24, 0x7F	; 127
    1ca6:	90 70       	andi	r25, 0x00	; 0
    1ca8:	a0 70       	andi	r26, 0x00	; 0
    1caa:	b0 70       	andi	r27, 0x00	; 0
    1cac:	80 34       	cpi	r24, 0x40	; 64
    1cae:	91 05       	cpc	r25, r1
    1cb0:	a1 05       	cpc	r26, r1
    1cb2:	b1 05       	cpc	r27, r1
    1cb4:	39 f4       	brne	.+14     	; 0x1cc4 <__pack_f+0x144>
    1cb6:	27 ff       	sbrs	r18, 7
    1cb8:	09 c0       	rjmp	.+18     	; 0x1ccc <__pack_f+0x14c>
    1cba:	20 5c       	subi	r18, 0xC0	; 192
    1cbc:	3f 4f       	sbci	r19, 0xFF	; 255
    1cbe:	4f 4f       	sbci	r20, 0xFF	; 255
    1cc0:	5f 4f       	sbci	r21, 0xFF	; 255
    1cc2:	04 c0       	rjmp	.+8      	; 0x1ccc <__pack_f+0x14c>
    1cc4:	21 5c       	subi	r18, 0xC1	; 193
    1cc6:	3f 4f       	sbci	r19, 0xFF	; 255
    1cc8:	4f 4f       	sbci	r20, 0xFF	; 255
    1cca:	5f 4f       	sbci	r21, 0xFF	; 255
    1ccc:	57 ff       	sbrs	r21, 7
    1cce:	05 c0       	rjmp	.+10     	; 0x1cda <__pack_f+0x15a>
    1cd0:	56 95       	lsr	r21
    1cd2:	47 95       	ror	r20
    1cd4:	37 95       	ror	r19
    1cd6:	27 95       	ror	r18
    1cd8:	31 96       	adiw	r30, 0x01	; 1
    1cda:	87 e0       	ldi	r24, 0x07	; 7
    1cdc:	56 95       	lsr	r21
    1cde:	47 95       	ror	r20
    1ce0:	37 95       	ror	r19
    1ce2:	27 95       	ror	r18
    1ce4:	8a 95       	dec	r24
    1ce6:	d1 f7       	brne	.-12     	; 0x1cdc <__pack_f+0x15c>
    1ce8:	06 c0       	rjmp	.+12     	; 0x1cf6 <__pack_f+0x176>
    1cea:	20 e0       	ldi	r18, 0x00	; 0
    1cec:	30 e0       	ldi	r19, 0x00	; 0
    1cee:	40 e0       	ldi	r20, 0x00	; 0
    1cf0:	50 e0       	ldi	r21, 0x00	; 0
    1cf2:	ef ef       	ldi	r30, 0xFF	; 255
    1cf4:	f0 e0       	ldi	r31, 0x00	; 0
    1cf6:	e2 2e       	mov	r14, r18
    1cf8:	f3 2e       	mov	r15, r19
    1cfa:	94 2f       	mov	r25, r20
    1cfc:	9f 77       	andi	r25, 0x7F	; 127
    1cfe:	80 2f       	mov	r24, r16
    1d00:	80 78       	andi	r24, 0x80	; 128
    1d02:	89 2b       	or	r24, r25
    1d04:	9e 2f       	mov	r25, r30
    1d06:	97 95       	ror	r25
    1d08:	99 27       	eor	r25, r25
    1d0a:	97 95       	ror	r25
    1d0c:	8f 77       	andi	r24, 0x7F	; 127
    1d0e:	08 2f       	mov	r16, r24
    1d10:	09 2b       	or	r16, r25
    1d12:	9e 2f       	mov	r25, r30
    1d14:	96 95       	lsr	r25
    1d16:	81 2f       	mov	r24, r17
    1d18:	80 78       	andi	r24, 0x80	; 128
    1d1a:	89 2b       	or	r24, r25
    1d1c:	97 94       	ror	r9
    1d1e:	99 24       	eor	r9, r9
    1d20:	97 94       	ror	r9
    1d22:	8f 77       	andi	r24, 0x7F	; 127
    1d24:	18 2f       	mov	r17, r24
    1d26:	19 29       	or	r17, r9
    1d28:	c8 01       	movw	r24, r16
    1d2a:	b7 01       	movw	r22, r14
    1d2c:	1f 91       	pop	r17
    1d2e:	0f 91       	pop	r16
    1d30:	ff 90       	pop	r15
    1d32:	ef 90       	pop	r14
    1d34:	df 90       	pop	r13
    1d36:	cf 90       	pop	r12
    1d38:	bf 90       	pop	r11
    1d3a:	af 90       	pop	r10
    1d3c:	9f 90       	pop	r9
    1d3e:	08 95       	ret

00001d40 <acos>:
    1d40:	9f 93       	push	r25
    1d42:	9f 77       	andi	r25, 0x7F	; 127
    1d44:	85 d1       	rcall	.+778    	; 0x2050 <__fp_arccos>
    1d46:	0f 90       	pop	r0
    1d48:	00 20       	and	r0, r0
    1d4a:	3a f4       	brpl	.+14     	; 0x1d5a <acos+0x1a>
    1d4c:	90 58       	subi	r25, 0x80	; 128
    1d4e:	a2 ea       	ldi	r26, 0xA2	; 162
    1d50:	2a ed       	ldi	r18, 0xDA	; 218
    1d52:	3f e0       	ldi	r19, 0x0F	; 15
    1d54:	49 e4       	ldi	r20, 0x49	; 73
    1d56:	50 e4       	ldi	r21, 0x40	; 64
    1d58:	13 d0       	rcall	.+38     	; 0x1d80 <__addsf3x>
    1d5a:	0e c2       	rjmp	.+1052   	; 0x2178 <__fp_round>

00001d5c <__subsf3>:
    1d5c:	50 58       	subi	r21, 0x80	; 128

00001d5e <__addsf3>:
    1d5e:	bb 27       	eor	r27, r27
    1d60:	aa 27       	eor	r26, r26
    1d62:	0e d0       	rcall	.+28     	; 0x1d80 <__addsf3x>
    1d64:	09 c2       	rjmp	.+1042   	; 0x2178 <__fp_round>
    1d66:	fa d1       	rcall	.+1012   	; 0x215c <__fp_pscA>
    1d68:	30 f0       	brcs	.+12     	; 0x1d76 <__addsf3+0x18>
    1d6a:	ff d1       	rcall	.+1022   	; 0x216a <__fp_pscB>
    1d6c:	20 f0       	brcs	.+8      	; 0x1d76 <__addsf3+0x18>
    1d6e:	31 f4       	brne	.+12     	; 0x1d7c <__addsf3+0x1e>
    1d70:	9f 3f       	cpi	r25, 0xFF	; 255
    1d72:	11 f4       	brne	.+4      	; 0x1d78 <__addsf3+0x1a>
    1d74:	1e f4       	brtc	.+6      	; 0x1d7c <__addsf3+0x1e>
    1d76:	b9 c1       	rjmp	.+882    	; 0x20ea <__fp_nan>
    1d78:	0e f4       	brtc	.+2      	; 0x1d7c <__addsf3+0x1e>
    1d7a:	e0 95       	com	r30
    1d7c:	e7 fb       	bst	r30, 7
    1d7e:	af c1       	rjmp	.+862    	; 0x20de <__fp_inf>

00001d80 <__addsf3x>:
    1d80:	e9 2f       	mov	r30, r25
    1d82:	0b d2       	rcall	.+1046   	; 0x219a <__fp_split3>
    1d84:	80 f3       	brcs	.-32     	; 0x1d66 <__addsf3+0x8>
    1d86:	ba 17       	cp	r27, r26
    1d88:	62 07       	cpc	r22, r18
    1d8a:	73 07       	cpc	r23, r19
    1d8c:	84 07       	cpc	r24, r20
    1d8e:	95 07       	cpc	r25, r21
    1d90:	18 f0       	brcs	.+6      	; 0x1d98 <__addsf3x+0x18>
    1d92:	71 f4       	brne	.+28     	; 0x1db0 <__addsf3x+0x30>
    1d94:	9e f5       	brtc	.+102    	; 0x1dfc <__addsf3x+0x7c>
    1d96:	23 c2       	rjmp	.+1094   	; 0x21de <__fp_zero>
    1d98:	0e f4       	brtc	.+2      	; 0x1d9c <__addsf3x+0x1c>
    1d9a:	e0 95       	com	r30
    1d9c:	0b 2e       	mov	r0, r27
    1d9e:	ba 2f       	mov	r27, r26
    1da0:	a0 2d       	mov	r26, r0
    1da2:	0b 01       	movw	r0, r22
    1da4:	b9 01       	movw	r22, r18
    1da6:	90 01       	movw	r18, r0
    1da8:	0c 01       	movw	r0, r24
    1daa:	ca 01       	movw	r24, r20
    1dac:	a0 01       	movw	r20, r0
    1dae:	11 24       	eor	r1, r1
    1db0:	ff 27       	eor	r31, r31
    1db2:	59 1b       	sub	r21, r25
    1db4:	99 f0       	breq	.+38     	; 0x1ddc <__addsf3x+0x5c>
    1db6:	59 3f       	cpi	r21, 0xF9	; 249
    1db8:	50 f4       	brcc	.+20     	; 0x1dce <__addsf3x+0x4e>
    1dba:	50 3e       	cpi	r21, 0xE0	; 224
    1dbc:	68 f1       	brcs	.+90     	; 0x1e18 <__addsf3x+0x98>
    1dbe:	1a 16       	cp	r1, r26
    1dc0:	f0 40       	sbci	r31, 0x00	; 0
    1dc2:	a2 2f       	mov	r26, r18
    1dc4:	23 2f       	mov	r18, r19
    1dc6:	34 2f       	mov	r19, r20
    1dc8:	44 27       	eor	r20, r20
    1dca:	58 5f       	subi	r21, 0xF8	; 248
    1dcc:	f3 cf       	rjmp	.-26     	; 0x1db4 <__addsf3x+0x34>
    1dce:	46 95       	lsr	r20
    1dd0:	37 95       	ror	r19
    1dd2:	27 95       	ror	r18
    1dd4:	a7 95       	ror	r26
    1dd6:	f0 40       	sbci	r31, 0x00	; 0
    1dd8:	53 95       	inc	r21
    1dda:	c9 f7       	brne	.-14     	; 0x1dce <__addsf3x+0x4e>
    1ddc:	7e f4       	brtc	.+30     	; 0x1dfc <__addsf3x+0x7c>
    1dde:	1f 16       	cp	r1, r31
    1de0:	ba 0b       	sbc	r27, r26
    1de2:	62 0b       	sbc	r22, r18
    1de4:	73 0b       	sbc	r23, r19
    1de6:	84 0b       	sbc	r24, r20
    1de8:	ba f0       	brmi	.+46     	; 0x1e18 <__addsf3x+0x98>
    1dea:	91 50       	subi	r25, 0x01	; 1
    1dec:	a1 f0       	breq	.+40     	; 0x1e16 <__addsf3x+0x96>
    1dee:	ff 0f       	add	r31, r31
    1df0:	bb 1f       	adc	r27, r27
    1df2:	66 1f       	adc	r22, r22
    1df4:	77 1f       	adc	r23, r23
    1df6:	88 1f       	adc	r24, r24
    1df8:	c2 f7       	brpl	.-16     	; 0x1dea <__addsf3x+0x6a>
    1dfa:	0e c0       	rjmp	.+28     	; 0x1e18 <__addsf3x+0x98>
    1dfc:	ba 0f       	add	r27, r26
    1dfe:	62 1f       	adc	r22, r18
    1e00:	73 1f       	adc	r23, r19
    1e02:	84 1f       	adc	r24, r20
    1e04:	48 f4       	brcc	.+18     	; 0x1e18 <__addsf3x+0x98>
    1e06:	87 95       	ror	r24
    1e08:	77 95       	ror	r23
    1e0a:	67 95       	ror	r22
    1e0c:	b7 95       	ror	r27
    1e0e:	f7 95       	ror	r31
    1e10:	9e 3f       	cpi	r25, 0xFE	; 254
    1e12:	08 f0       	brcs	.+2      	; 0x1e16 <__addsf3x+0x96>
    1e14:	b3 cf       	rjmp	.-154    	; 0x1d7c <__addsf3+0x1e>
    1e16:	93 95       	inc	r25
    1e18:	88 0f       	add	r24, r24
    1e1a:	08 f0       	brcs	.+2      	; 0x1e1e <__addsf3x+0x9e>
    1e1c:	99 27       	eor	r25, r25
    1e1e:	ee 0f       	add	r30, r30
    1e20:	97 95       	ror	r25
    1e22:	87 95       	ror	r24
    1e24:	08 95       	ret

00001e26 <asin>:
    1e26:	9f 93       	push	r25
    1e28:	9f 77       	andi	r25, 0x7F	; 127
    1e2a:	ee e3       	ldi	r30, 0x3E	; 62
    1e2c:	89 37       	cpi	r24, 0x79	; 121
    1e2e:	9e 07       	cpc	r25, r30
    1e30:	20 f4       	brcc	.+8      	; 0x1e3a <asin+0x14>
    1e32:	e4 e5       	ldi	r30, 0x54	; 84
    1e34:	f0 e0       	ldi	r31, 0x00	; 0
    1e36:	81 d1       	rcall	.+770    	; 0x213a <__fp_powsodd>
    1e38:	09 c0       	rjmp	.+18     	; 0x1e4c <asin+0x26>
    1e3a:	0a d1       	rcall	.+532    	; 0x2050 <__fp_arccos>
    1e3c:	90 58       	subi	r25, 0x80	; 128
    1e3e:	a2 ea       	ldi	r26, 0xA2	; 162
    1e40:	2a ed       	ldi	r18, 0xDA	; 218
    1e42:	3f e0       	ldi	r19, 0x0F	; 15
    1e44:	49 ec       	ldi	r20, 0xC9	; 201
    1e46:	5f e3       	ldi	r21, 0x3F	; 63
    1e48:	9b df       	rcall	.-202    	; 0x1d80 <__addsf3x>
    1e4a:	96 d1       	rcall	.+812    	; 0x2178 <__fp_round>
    1e4c:	0f 90       	pop	r0
    1e4e:	07 fc       	sbrc	r0, 7
    1e50:	90 58       	subi	r25, 0x80	; 128
    1e52:	08 95       	ret

00001e54 <atan>:
    1e54:	df 93       	push	r29
    1e56:	dd 27       	eor	r29, r29
    1e58:	b9 2f       	mov	r27, r25
    1e5a:	bf 77       	andi	r27, 0x7F	; 127
    1e5c:	40 e8       	ldi	r20, 0x80	; 128
    1e5e:	5f e3       	ldi	r21, 0x3F	; 63
    1e60:	16 16       	cp	r1, r22
    1e62:	17 06       	cpc	r1, r23
    1e64:	48 07       	cpc	r20, r24
    1e66:	5b 07       	cpc	r21, r27
    1e68:	10 f4       	brcc	.+4      	; 0x1e6e <atan+0x1a>
    1e6a:	d9 2f       	mov	r29, r25
    1e6c:	bf d1       	rcall	.+894    	; 0x21ec <inverse>
    1e6e:	9f 93       	push	r25
    1e70:	8f 93       	push	r24
    1e72:	7f 93       	push	r23
    1e74:	6f 93       	push	r22
    1e76:	72 d2       	rcall	.+1252   	; 0x235c <square>
    1e78:	e8 e6       	ldi	r30, 0x68	; 104
    1e7a:	f0 e0       	ldi	r31, 0x00	; 0
    1e7c:	39 d1       	rcall	.+626    	; 0x20f0 <__fp_powser>
    1e7e:	7c d1       	rcall	.+760    	; 0x2178 <__fp_round>
    1e80:	2f 91       	pop	r18
    1e82:	3f 91       	pop	r19
    1e84:	4f 91       	pop	r20
    1e86:	5f 91       	pop	r21
    1e88:	c4 d1       	rcall	.+904    	; 0x2212 <__mulsf3x>
    1e8a:	dd 23       	and	r29, r29
    1e8c:	49 f0       	breq	.+18     	; 0x1ea0 <atan+0x4c>
    1e8e:	90 58       	subi	r25, 0x80	; 128
    1e90:	a2 ea       	ldi	r26, 0xA2	; 162
    1e92:	2a ed       	ldi	r18, 0xDA	; 218
    1e94:	3f e0       	ldi	r19, 0x0F	; 15
    1e96:	49 ec       	ldi	r20, 0xC9	; 201
    1e98:	5f e3       	ldi	r21, 0x3F	; 63
    1e9a:	d0 78       	andi	r29, 0x80	; 128
    1e9c:	5d 27       	eor	r21, r29
    1e9e:	70 df       	rcall	.-288    	; 0x1d80 <__addsf3x>
    1ea0:	df 91       	pop	r29
    1ea2:	6a c1       	rjmp	.+724    	; 0x2178 <__fp_round>

00001ea4 <__divsf3>:
    1ea4:	0c d0       	rcall	.+24     	; 0x1ebe <__divsf3x>
    1ea6:	68 c1       	rjmp	.+720    	; 0x2178 <__fp_round>
    1ea8:	60 d1       	rcall	.+704    	; 0x216a <__fp_pscB>
    1eaa:	40 f0       	brcs	.+16     	; 0x1ebc <__divsf3+0x18>
    1eac:	57 d1       	rcall	.+686    	; 0x215c <__fp_pscA>
    1eae:	30 f0       	brcs	.+12     	; 0x1ebc <__divsf3+0x18>
    1eb0:	21 f4       	brne	.+8      	; 0x1eba <__divsf3+0x16>
    1eb2:	5f 3f       	cpi	r21, 0xFF	; 255
    1eb4:	19 f0       	breq	.+6      	; 0x1ebc <__divsf3+0x18>
    1eb6:	13 c1       	rjmp	.+550    	; 0x20de <__fp_inf>
    1eb8:	51 11       	cpse	r21, r1
    1eba:	92 c1       	rjmp	.+804    	; 0x21e0 <__fp_szero>
    1ebc:	16 c1       	rjmp	.+556    	; 0x20ea <__fp_nan>

00001ebe <__divsf3x>:
    1ebe:	6d d1       	rcall	.+730    	; 0x219a <__fp_split3>
    1ec0:	98 f3       	brcs	.-26     	; 0x1ea8 <__divsf3+0x4>

00001ec2 <__divsf3_pse>:
    1ec2:	99 23       	and	r25, r25
    1ec4:	c9 f3       	breq	.-14     	; 0x1eb8 <__divsf3+0x14>
    1ec6:	55 23       	and	r21, r21
    1ec8:	b1 f3       	breq	.-20     	; 0x1eb6 <__divsf3+0x12>
    1eca:	95 1b       	sub	r25, r21
    1ecc:	55 0b       	sbc	r21, r21
    1ece:	bb 27       	eor	r27, r27
    1ed0:	aa 27       	eor	r26, r26
    1ed2:	62 17       	cp	r22, r18
    1ed4:	73 07       	cpc	r23, r19
    1ed6:	84 07       	cpc	r24, r20
    1ed8:	38 f0       	brcs	.+14     	; 0x1ee8 <__divsf3_pse+0x26>
    1eda:	9f 5f       	subi	r25, 0xFF	; 255
    1edc:	5f 4f       	sbci	r21, 0xFF	; 255
    1ede:	22 0f       	add	r18, r18
    1ee0:	33 1f       	adc	r19, r19
    1ee2:	44 1f       	adc	r20, r20
    1ee4:	aa 1f       	adc	r26, r26
    1ee6:	a9 f3       	breq	.-22     	; 0x1ed2 <__divsf3_pse+0x10>
    1ee8:	33 d0       	rcall	.+102    	; 0x1f50 <__divsf3_pse+0x8e>
    1eea:	0e 2e       	mov	r0, r30
    1eec:	3a f0       	brmi	.+14     	; 0x1efc <__divsf3_pse+0x3a>
    1eee:	e0 e8       	ldi	r30, 0x80	; 128
    1ef0:	30 d0       	rcall	.+96     	; 0x1f52 <__divsf3_pse+0x90>
    1ef2:	91 50       	subi	r25, 0x01	; 1
    1ef4:	50 40       	sbci	r21, 0x00	; 0
    1ef6:	e6 95       	lsr	r30
    1ef8:	00 1c       	adc	r0, r0
    1efa:	ca f7       	brpl	.-14     	; 0x1eee <__divsf3_pse+0x2c>
    1efc:	29 d0       	rcall	.+82     	; 0x1f50 <__divsf3_pse+0x8e>
    1efe:	fe 2f       	mov	r31, r30
    1f00:	27 d0       	rcall	.+78     	; 0x1f50 <__divsf3_pse+0x8e>
    1f02:	66 0f       	add	r22, r22
    1f04:	77 1f       	adc	r23, r23
    1f06:	88 1f       	adc	r24, r24
    1f08:	bb 1f       	adc	r27, r27
    1f0a:	26 17       	cp	r18, r22
    1f0c:	37 07       	cpc	r19, r23
    1f0e:	48 07       	cpc	r20, r24
    1f10:	ab 07       	cpc	r26, r27
    1f12:	b0 e8       	ldi	r27, 0x80	; 128
    1f14:	09 f0       	breq	.+2      	; 0x1f18 <__divsf3_pse+0x56>
    1f16:	bb 0b       	sbc	r27, r27
    1f18:	80 2d       	mov	r24, r0
    1f1a:	bf 01       	movw	r22, r30
    1f1c:	ff 27       	eor	r31, r31
    1f1e:	93 58       	subi	r25, 0x83	; 131
    1f20:	5f 4f       	sbci	r21, 0xFF	; 255
    1f22:	2a f0       	brmi	.+10     	; 0x1f2e <__divsf3_pse+0x6c>
    1f24:	9e 3f       	cpi	r25, 0xFE	; 254
    1f26:	51 05       	cpc	r21, r1
    1f28:	68 f0       	brcs	.+26     	; 0x1f44 <__divsf3_pse+0x82>
    1f2a:	d9 c0       	rjmp	.+434    	; 0x20de <__fp_inf>
    1f2c:	59 c1       	rjmp	.+690    	; 0x21e0 <__fp_szero>
    1f2e:	5f 3f       	cpi	r21, 0xFF	; 255
    1f30:	ec f3       	brlt	.-6      	; 0x1f2c <__divsf3_pse+0x6a>
    1f32:	98 3e       	cpi	r25, 0xE8	; 232
    1f34:	dc f3       	brlt	.-10     	; 0x1f2c <__divsf3_pse+0x6a>
    1f36:	86 95       	lsr	r24
    1f38:	77 95       	ror	r23
    1f3a:	67 95       	ror	r22
    1f3c:	b7 95       	ror	r27
    1f3e:	f7 95       	ror	r31
    1f40:	9f 5f       	subi	r25, 0xFF	; 255
    1f42:	c9 f7       	brne	.-14     	; 0x1f36 <__divsf3_pse+0x74>
    1f44:	88 0f       	add	r24, r24
    1f46:	91 1d       	adc	r25, r1
    1f48:	96 95       	lsr	r25
    1f4a:	87 95       	ror	r24
    1f4c:	97 f9       	bld	r25, 7
    1f4e:	08 95       	ret
    1f50:	e1 e0       	ldi	r30, 0x01	; 1
    1f52:	66 0f       	add	r22, r22
    1f54:	77 1f       	adc	r23, r23
    1f56:	88 1f       	adc	r24, r24
    1f58:	bb 1f       	adc	r27, r27
    1f5a:	62 17       	cp	r22, r18
    1f5c:	73 07       	cpc	r23, r19
    1f5e:	84 07       	cpc	r24, r20
    1f60:	ba 07       	cpc	r27, r26
    1f62:	20 f0       	brcs	.+8      	; 0x1f6c <__divsf3_pse+0xaa>
    1f64:	62 1b       	sub	r22, r18
    1f66:	73 0b       	sbc	r23, r19
    1f68:	84 0b       	sbc	r24, r20
    1f6a:	ba 0b       	sbc	r27, r26
    1f6c:	ee 1f       	adc	r30, r30
    1f6e:	88 f7       	brcc	.-30     	; 0x1f52 <__divsf3_pse+0x90>
    1f70:	e0 95       	com	r30
    1f72:	08 95       	ret

00001f74 <__fixsfsi>:
    1f74:	04 d0       	rcall	.+8      	; 0x1f7e <__fixunssfsi>
    1f76:	68 94       	set
    1f78:	b1 11       	cpse	r27, r1
    1f7a:	32 c1       	rjmp	.+612    	; 0x21e0 <__fp_szero>
    1f7c:	08 95       	ret

00001f7e <__fixunssfsi>:
    1f7e:	15 d1       	rcall	.+554    	; 0x21aa <__fp_splitA>
    1f80:	88 f0       	brcs	.+34     	; 0x1fa4 <__fixunssfsi+0x26>
    1f82:	9f 57       	subi	r25, 0x7F	; 127
    1f84:	90 f0       	brcs	.+36     	; 0x1faa <__fixunssfsi+0x2c>
    1f86:	b9 2f       	mov	r27, r25
    1f88:	99 27       	eor	r25, r25
    1f8a:	b7 51       	subi	r27, 0x17	; 23
    1f8c:	a0 f0       	brcs	.+40     	; 0x1fb6 <__fixunssfsi+0x38>
    1f8e:	d1 f0       	breq	.+52     	; 0x1fc4 <__fixunssfsi+0x46>
    1f90:	66 0f       	add	r22, r22
    1f92:	77 1f       	adc	r23, r23
    1f94:	88 1f       	adc	r24, r24
    1f96:	99 1f       	adc	r25, r25
    1f98:	1a f0       	brmi	.+6      	; 0x1fa0 <__fixunssfsi+0x22>
    1f9a:	ba 95       	dec	r27
    1f9c:	c9 f7       	brne	.-14     	; 0x1f90 <__fixunssfsi+0x12>
    1f9e:	12 c0       	rjmp	.+36     	; 0x1fc4 <__fixunssfsi+0x46>
    1fa0:	b1 30       	cpi	r27, 0x01	; 1
    1fa2:	81 f0       	breq	.+32     	; 0x1fc4 <__fixunssfsi+0x46>
    1fa4:	1c d1       	rcall	.+568    	; 0x21de <__fp_zero>
    1fa6:	b1 e0       	ldi	r27, 0x01	; 1
    1fa8:	08 95       	ret
    1faa:	19 c1       	rjmp	.+562    	; 0x21de <__fp_zero>
    1fac:	67 2f       	mov	r22, r23
    1fae:	78 2f       	mov	r23, r24
    1fb0:	88 27       	eor	r24, r24
    1fb2:	b8 5f       	subi	r27, 0xF8	; 248
    1fb4:	39 f0       	breq	.+14     	; 0x1fc4 <__fixunssfsi+0x46>
    1fb6:	b9 3f       	cpi	r27, 0xF9	; 249
    1fb8:	cc f3       	brlt	.-14     	; 0x1fac <__fixunssfsi+0x2e>
    1fba:	86 95       	lsr	r24
    1fbc:	77 95       	ror	r23
    1fbe:	67 95       	ror	r22
    1fc0:	b3 95       	inc	r27
    1fc2:	d9 f7       	brne	.-10     	; 0x1fba <__fixunssfsi+0x3c>
    1fc4:	3e f4       	brtc	.+14     	; 0x1fd4 <__fixunssfsi+0x56>
    1fc6:	90 95       	com	r25
    1fc8:	80 95       	com	r24
    1fca:	70 95       	com	r23
    1fcc:	61 95       	neg	r22
    1fce:	7f 4f       	sbci	r23, 0xFF	; 255
    1fd0:	8f 4f       	sbci	r24, 0xFF	; 255
    1fd2:	9f 4f       	sbci	r25, 0xFF	; 255
    1fd4:	08 95       	ret

00001fd6 <__floatunssisf>:
    1fd6:	e8 94       	clt
    1fd8:	09 c0       	rjmp	.+18     	; 0x1fec <__floatsisf+0x12>

00001fda <__floatsisf>:
    1fda:	97 fb       	bst	r25, 7
    1fdc:	3e f4       	brtc	.+14     	; 0x1fec <__floatsisf+0x12>
    1fde:	90 95       	com	r25
    1fe0:	80 95       	com	r24
    1fe2:	70 95       	com	r23
    1fe4:	61 95       	neg	r22
    1fe6:	7f 4f       	sbci	r23, 0xFF	; 255
    1fe8:	8f 4f       	sbci	r24, 0xFF	; 255
    1fea:	9f 4f       	sbci	r25, 0xFF	; 255
    1fec:	99 23       	and	r25, r25
    1fee:	a9 f0       	breq	.+42     	; 0x201a <__floatsisf+0x40>
    1ff0:	f9 2f       	mov	r31, r25
    1ff2:	96 e9       	ldi	r25, 0x96	; 150
    1ff4:	bb 27       	eor	r27, r27
    1ff6:	93 95       	inc	r25
    1ff8:	f6 95       	lsr	r31
    1ffa:	87 95       	ror	r24
    1ffc:	77 95       	ror	r23
    1ffe:	67 95       	ror	r22
    2000:	b7 95       	ror	r27
    2002:	f1 11       	cpse	r31, r1
    2004:	f8 cf       	rjmp	.-16     	; 0x1ff6 <__floatsisf+0x1c>
    2006:	fa f4       	brpl	.+62     	; 0x2046 <__floatsisf+0x6c>
    2008:	bb 0f       	add	r27, r27
    200a:	11 f4       	brne	.+4      	; 0x2010 <__floatsisf+0x36>
    200c:	60 ff       	sbrs	r22, 0
    200e:	1b c0       	rjmp	.+54     	; 0x2046 <__floatsisf+0x6c>
    2010:	6f 5f       	subi	r22, 0xFF	; 255
    2012:	7f 4f       	sbci	r23, 0xFF	; 255
    2014:	8f 4f       	sbci	r24, 0xFF	; 255
    2016:	9f 4f       	sbci	r25, 0xFF	; 255
    2018:	16 c0       	rjmp	.+44     	; 0x2046 <__floatsisf+0x6c>
    201a:	88 23       	and	r24, r24
    201c:	11 f0       	breq	.+4      	; 0x2022 <__floatsisf+0x48>
    201e:	96 e9       	ldi	r25, 0x96	; 150
    2020:	11 c0       	rjmp	.+34     	; 0x2044 <__floatsisf+0x6a>
    2022:	77 23       	and	r23, r23
    2024:	21 f0       	breq	.+8      	; 0x202e <__floatsisf+0x54>
    2026:	9e e8       	ldi	r25, 0x8E	; 142
    2028:	87 2f       	mov	r24, r23
    202a:	76 2f       	mov	r23, r22
    202c:	05 c0       	rjmp	.+10     	; 0x2038 <__floatsisf+0x5e>
    202e:	66 23       	and	r22, r22
    2030:	71 f0       	breq	.+28     	; 0x204e <__floatsisf+0x74>
    2032:	96 e8       	ldi	r25, 0x86	; 134
    2034:	86 2f       	mov	r24, r22
    2036:	70 e0       	ldi	r23, 0x00	; 0
    2038:	60 e0       	ldi	r22, 0x00	; 0
    203a:	2a f0       	brmi	.+10     	; 0x2046 <__floatsisf+0x6c>
    203c:	9a 95       	dec	r25
    203e:	66 0f       	add	r22, r22
    2040:	77 1f       	adc	r23, r23
    2042:	88 1f       	adc	r24, r24
    2044:	da f7       	brpl	.-10     	; 0x203c <__floatsisf+0x62>
    2046:	88 0f       	add	r24, r24
    2048:	96 95       	lsr	r25
    204a:	87 95       	ror	r24
    204c:	97 f9       	bld	r25, 7
    204e:	08 95       	ret

00002050 <__fp_arccos>:
    2050:	df 93       	push	r29
    2052:	cf 93       	push	r28
    2054:	1f 93       	push	r17
    2056:	0f 93       	push	r16
    2058:	8b 01       	movw	r16, r22
    205a:	ec 01       	movw	r28, r24
    205c:	e5 e9       	ldi	r30, 0x95	; 149
    205e:	f0 e0       	ldi	r31, 0x00	; 0
    2060:	47 d0       	rcall	.+142    	; 0x20f0 <__fp_powser>
    2062:	8a d0       	rcall	.+276    	; 0x2178 <__fp_round>
    2064:	98 01       	movw	r18, r16
    2066:	ae 01       	movw	r20, r28
    2068:	8b 01       	movw	r16, r22
    206a:	ec 01       	movw	r28, r24
    206c:	60 e0       	ldi	r22, 0x00	; 0
    206e:	70 e0       	ldi	r23, 0x00	; 0
    2070:	80 e8       	ldi	r24, 0x80	; 128
    2072:	9f e3       	ldi	r25, 0x3F	; 63
    2074:	73 de       	rcall	.-794    	; 0x1d5c <__subsf3>
    2076:	28 d1       	rcall	.+592    	; 0x22c8 <sqrt>
    2078:	98 01       	movw	r18, r16
    207a:	ae 01       	movw	r20, r28
    207c:	0f 91       	pop	r16
    207e:	1f 91       	pop	r17
    2080:	cf 91       	pop	r28
    2082:	df 91       	pop	r29
    2084:	c6 c0       	rjmp	.+396    	; 0x2212 <__mulsf3x>

00002086 <__cmpsf2>:
    2086:	07 d0       	rcall	.+14     	; 0x2096 <__gesf2+0x8>
    2088:	08 f4       	brcc	.+2      	; 0x208c <__cmpsf2+0x6>
    208a:	81 e0       	ldi	r24, 0x01	; 1
    208c:	08 95       	ret

0000208e <__gesf2>:
    208e:	03 d0       	rcall	.+6      	; 0x2096 <__gesf2+0x8>
    2090:	08 f4       	brcc	.+2      	; 0x2094 <__gesf2+0x6>
    2092:	8f ef       	ldi	r24, 0xFF	; 255
    2094:	08 95       	ret
    2096:	99 0f       	add	r25, r25
    2098:	00 08       	sbc	r0, r0
    209a:	55 0f       	add	r21, r21
    209c:	aa 0b       	sbc	r26, r26
    209e:	e0 e8       	ldi	r30, 0x80	; 128
    20a0:	fe ef       	ldi	r31, 0xFE	; 254
    20a2:	16 16       	cp	r1, r22
    20a4:	17 06       	cpc	r1, r23
    20a6:	e8 07       	cpc	r30, r24
    20a8:	f9 07       	cpc	r31, r25
    20aa:	c0 f0       	brcs	.+48     	; 0x20dc <__gesf2+0x4e>
    20ac:	12 16       	cp	r1, r18
    20ae:	13 06       	cpc	r1, r19
    20b0:	e4 07       	cpc	r30, r20
    20b2:	f5 07       	cpc	r31, r21
    20b4:	98 f0       	brcs	.+38     	; 0x20dc <__gesf2+0x4e>
    20b6:	62 1b       	sub	r22, r18
    20b8:	73 0b       	sbc	r23, r19
    20ba:	84 0b       	sbc	r24, r20
    20bc:	95 0b       	sbc	r25, r21
    20be:	39 f4       	brne	.+14     	; 0x20ce <__gesf2+0x40>
    20c0:	0a 26       	eor	r0, r26
    20c2:	61 f0       	breq	.+24     	; 0x20dc <__gesf2+0x4e>
    20c4:	23 2b       	or	r18, r19
    20c6:	24 2b       	or	r18, r20
    20c8:	25 2b       	or	r18, r21
    20ca:	21 f4       	brne	.+8      	; 0x20d4 <__gesf2+0x46>
    20cc:	08 95       	ret
    20ce:	0a 26       	eor	r0, r26
    20d0:	09 f4       	brne	.+2      	; 0x20d4 <__gesf2+0x46>
    20d2:	a1 40       	sbci	r26, 0x01	; 1
    20d4:	a6 95       	lsr	r26
    20d6:	8f ef       	ldi	r24, 0xFF	; 255
    20d8:	81 1d       	adc	r24, r1
    20da:	81 1d       	adc	r24, r1
    20dc:	08 95       	ret

000020de <__fp_inf>:
    20de:	97 f9       	bld	r25, 7
    20e0:	9f 67       	ori	r25, 0x7F	; 127
    20e2:	80 e8       	ldi	r24, 0x80	; 128
    20e4:	70 e0       	ldi	r23, 0x00	; 0
    20e6:	60 e0       	ldi	r22, 0x00	; 0
    20e8:	08 95       	ret

000020ea <__fp_nan>:
    20ea:	9f ef       	ldi	r25, 0xFF	; 255
    20ec:	80 ec       	ldi	r24, 0xC0	; 192
    20ee:	08 95       	ret

000020f0 <__fp_powser>:
    20f0:	df 93       	push	r29
    20f2:	cf 93       	push	r28
    20f4:	1f 93       	push	r17
    20f6:	0f 93       	push	r16
    20f8:	ff 92       	push	r15
    20fa:	ef 92       	push	r14
    20fc:	df 92       	push	r13
    20fe:	7b 01       	movw	r14, r22
    2100:	8c 01       	movw	r16, r24
    2102:	68 94       	set
    2104:	05 c0       	rjmp	.+10     	; 0x2110 <__fp_powser+0x20>
    2106:	da 2e       	mov	r13, r26
    2108:	ef 01       	movw	r28, r30
    210a:	83 d0       	rcall	.+262    	; 0x2212 <__mulsf3x>
    210c:	fe 01       	movw	r30, r28
    210e:	e8 94       	clt
    2110:	a5 91       	lpm	r26, Z+
    2112:	25 91       	lpm	r18, Z+
    2114:	35 91       	lpm	r19, Z+
    2116:	45 91       	lpm	r20, Z+
    2118:	55 91       	lpm	r21, Z+
    211a:	ae f3       	brts	.-22     	; 0x2106 <__fp_powser+0x16>
    211c:	ef 01       	movw	r28, r30
    211e:	30 de       	rcall	.-928    	; 0x1d80 <__addsf3x>
    2120:	fe 01       	movw	r30, r28
    2122:	97 01       	movw	r18, r14
    2124:	a8 01       	movw	r20, r16
    2126:	da 94       	dec	r13
    2128:	79 f7       	brne	.-34     	; 0x2108 <__fp_powser+0x18>
    212a:	df 90       	pop	r13
    212c:	ef 90       	pop	r14
    212e:	ff 90       	pop	r15
    2130:	0f 91       	pop	r16
    2132:	1f 91       	pop	r17
    2134:	cf 91       	pop	r28
    2136:	df 91       	pop	r29
    2138:	08 95       	ret

0000213a <__fp_powsodd>:
    213a:	9f 93       	push	r25
    213c:	8f 93       	push	r24
    213e:	7f 93       	push	r23
    2140:	6f 93       	push	r22
    2142:	ff 93       	push	r31
    2144:	ef 93       	push	r30
    2146:	9b 01       	movw	r18, r22
    2148:	ac 01       	movw	r20, r24
    214a:	57 d0       	rcall	.+174    	; 0x21fa <__mulsf3>
    214c:	ef 91       	pop	r30
    214e:	ff 91       	pop	r31
    2150:	cf df       	rcall	.-98     	; 0x20f0 <__fp_powser>
    2152:	2f 91       	pop	r18
    2154:	3f 91       	pop	r19
    2156:	4f 91       	pop	r20
    2158:	5f 91       	pop	r21
    215a:	4f c0       	rjmp	.+158    	; 0x21fa <__mulsf3>

0000215c <__fp_pscA>:
    215c:	00 24       	eor	r0, r0
    215e:	0a 94       	dec	r0
    2160:	16 16       	cp	r1, r22
    2162:	17 06       	cpc	r1, r23
    2164:	18 06       	cpc	r1, r24
    2166:	09 06       	cpc	r0, r25
    2168:	08 95       	ret

0000216a <__fp_pscB>:
    216a:	00 24       	eor	r0, r0
    216c:	0a 94       	dec	r0
    216e:	12 16       	cp	r1, r18
    2170:	13 06       	cpc	r1, r19
    2172:	14 06       	cpc	r1, r20
    2174:	05 06       	cpc	r0, r21
    2176:	08 95       	ret

00002178 <__fp_round>:
    2178:	09 2e       	mov	r0, r25
    217a:	03 94       	inc	r0
    217c:	00 0c       	add	r0, r0
    217e:	11 f4       	brne	.+4      	; 0x2184 <__fp_round+0xc>
    2180:	88 23       	and	r24, r24
    2182:	52 f0       	brmi	.+20     	; 0x2198 <__fp_round+0x20>
    2184:	bb 0f       	add	r27, r27
    2186:	40 f4       	brcc	.+16     	; 0x2198 <__fp_round+0x20>
    2188:	bf 2b       	or	r27, r31
    218a:	11 f4       	brne	.+4      	; 0x2190 <__fp_round+0x18>
    218c:	60 ff       	sbrs	r22, 0
    218e:	04 c0       	rjmp	.+8      	; 0x2198 <__fp_round+0x20>
    2190:	6f 5f       	subi	r22, 0xFF	; 255
    2192:	7f 4f       	sbci	r23, 0xFF	; 255
    2194:	8f 4f       	sbci	r24, 0xFF	; 255
    2196:	9f 4f       	sbci	r25, 0xFF	; 255
    2198:	08 95       	ret

0000219a <__fp_split3>:
    219a:	57 fd       	sbrc	r21, 7
    219c:	90 58       	subi	r25, 0x80	; 128
    219e:	44 0f       	add	r20, r20
    21a0:	55 1f       	adc	r21, r21
    21a2:	59 f0       	breq	.+22     	; 0x21ba <__fp_splitA+0x10>
    21a4:	5f 3f       	cpi	r21, 0xFF	; 255
    21a6:	71 f0       	breq	.+28     	; 0x21c4 <__fp_splitA+0x1a>
    21a8:	47 95       	ror	r20

000021aa <__fp_splitA>:
    21aa:	88 0f       	add	r24, r24
    21ac:	97 fb       	bst	r25, 7
    21ae:	99 1f       	adc	r25, r25
    21b0:	61 f0       	breq	.+24     	; 0x21ca <__fp_splitA+0x20>
    21b2:	9f 3f       	cpi	r25, 0xFF	; 255
    21b4:	79 f0       	breq	.+30     	; 0x21d4 <__fp_splitA+0x2a>
    21b6:	87 95       	ror	r24
    21b8:	08 95       	ret
    21ba:	12 16       	cp	r1, r18
    21bc:	13 06       	cpc	r1, r19
    21be:	14 06       	cpc	r1, r20
    21c0:	55 1f       	adc	r21, r21
    21c2:	f2 cf       	rjmp	.-28     	; 0x21a8 <__fp_split3+0xe>
    21c4:	46 95       	lsr	r20
    21c6:	f1 df       	rcall	.-30     	; 0x21aa <__fp_splitA>
    21c8:	08 c0       	rjmp	.+16     	; 0x21da <__fp_splitA+0x30>
    21ca:	16 16       	cp	r1, r22
    21cc:	17 06       	cpc	r1, r23
    21ce:	18 06       	cpc	r1, r24
    21d0:	99 1f       	adc	r25, r25
    21d2:	f1 cf       	rjmp	.-30     	; 0x21b6 <__fp_splitA+0xc>
    21d4:	86 95       	lsr	r24
    21d6:	71 05       	cpc	r23, r1
    21d8:	61 05       	cpc	r22, r1
    21da:	08 94       	sec
    21dc:	08 95       	ret

000021de <__fp_zero>:
    21de:	e8 94       	clt

000021e0 <__fp_szero>:
    21e0:	bb 27       	eor	r27, r27
    21e2:	66 27       	eor	r22, r22
    21e4:	77 27       	eor	r23, r23
    21e6:	cb 01       	movw	r24, r22
    21e8:	97 f9       	bld	r25, 7
    21ea:	08 95       	ret

000021ec <inverse>:
    21ec:	9b 01       	movw	r18, r22
    21ee:	ac 01       	movw	r20, r24
    21f0:	60 e0       	ldi	r22, 0x00	; 0
    21f2:	70 e0       	ldi	r23, 0x00	; 0
    21f4:	80 e8       	ldi	r24, 0x80	; 128
    21f6:	9f e3       	ldi	r25, 0x3F	; 63
    21f8:	55 ce       	rjmp	.-854    	; 0x1ea4 <__divsf3>

000021fa <__mulsf3>:
    21fa:	0b d0       	rcall	.+22     	; 0x2212 <__mulsf3x>
    21fc:	bd cf       	rjmp	.-134    	; 0x2178 <__fp_round>
    21fe:	ae df       	rcall	.-164    	; 0x215c <__fp_pscA>
    2200:	28 f0       	brcs	.+10     	; 0x220c <__mulsf3+0x12>
    2202:	b3 df       	rcall	.-154    	; 0x216a <__fp_pscB>
    2204:	18 f0       	brcs	.+6      	; 0x220c <__mulsf3+0x12>
    2206:	95 23       	and	r25, r21
    2208:	09 f0       	breq	.+2      	; 0x220c <__mulsf3+0x12>
    220a:	69 cf       	rjmp	.-302    	; 0x20de <__fp_inf>
    220c:	6e cf       	rjmp	.-292    	; 0x20ea <__fp_nan>
    220e:	11 24       	eor	r1, r1
    2210:	e7 cf       	rjmp	.-50     	; 0x21e0 <__fp_szero>

00002212 <__mulsf3x>:
    2212:	c3 df       	rcall	.-122    	; 0x219a <__fp_split3>
    2214:	a0 f3       	brcs	.-24     	; 0x21fe <__mulsf3+0x4>

00002216 <__mulsf3_pse>:
    2216:	95 9f       	mul	r25, r21
    2218:	d1 f3       	breq	.-12     	; 0x220e <__mulsf3+0x14>
    221a:	95 0f       	add	r25, r21
    221c:	50 e0       	ldi	r21, 0x00	; 0
    221e:	55 1f       	adc	r21, r21
    2220:	62 9f       	mul	r22, r18
    2222:	f0 01       	movw	r30, r0
    2224:	72 9f       	mul	r23, r18
    2226:	bb 27       	eor	r27, r27
    2228:	f0 0d       	add	r31, r0
    222a:	b1 1d       	adc	r27, r1
    222c:	63 9f       	mul	r22, r19
    222e:	aa 27       	eor	r26, r26
    2230:	f0 0d       	add	r31, r0
    2232:	b1 1d       	adc	r27, r1
    2234:	aa 1f       	adc	r26, r26
    2236:	64 9f       	mul	r22, r20
    2238:	66 27       	eor	r22, r22
    223a:	b0 0d       	add	r27, r0
    223c:	a1 1d       	adc	r26, r1
    223e:	66 1f       	adc	r22, r22
    2240:	82 9f       	mul	r24, r18
    2242:	22 27       	eor	r18, r18
    2244:	b0 0d       	add	r27, r0
    2246:	a1 1d       	adc	r26, r1
    2248:	62 1f       	adc	r22, r18
    224a:	73 9f       	mul	r23, r19
    224c:	b0 0d       	add	r27, r0
    224e:	a1 1d       	adc	r26, r1
    2250:	62 1f       	adc	r22, r18
    2252:	83 9f       	mul	r24, r19
    2254:	a0 0d       	add	r26, r0
    2256:	61 1d       	adc	r22, r1
    2258:	22 1f       	adc	r18, r18
    225a:	74 9f       	mul	r23, r20
    225c:	33 27       	eor	r19, r19
    225e:	a0 0d       	add	r26, r0
    2260:	61 1d       	adc	r22, r1
    2262:	23 1f       	adc	r18, r19
    2264:	84 9f       	mul	r24, r20
    2266:	60 0d       	add	r22, r0
    2268:	21 1d       	adc	r18, r1
    226a:	82 2f       	mov	r24, r18
    226c:	76 2f       	mov	r23, r22
    226e:	6a 2f       	mov	r22, r26
    2270:	11 24       	eor	r1, r1
    2272:	9f 57       	subi	r25, 0x7F	; 127
    2274:	50 40       	sbci	r21, 0x00	; 0
    2276:	8a f0       	brmi	.+34     	; 0x229a <__mulsf3_pse+0x84>
    2278:	e1 f0       	breq	.+56     	; 0x22b2 <__mulsf3_pse+0x9c>
    227a:	88 23       	and	r24, r24
    227c:	4a f0       	brmi	.+18     	; 0x2290 <__mulsf3_pse+0x7a>
    227e:	ee 0f       	add	r30, r30
    2280:	ff 1f       	adc	r31, r31
    2282:	bb 1f       	adc	r27, r27
    2284:	66 1f       	adc	r22, r22
    2286:	77 1f       	adc	r23, r23
    2288:	88 1f       	adc	r24, r24
    228a:	91 50       	subi	r25, 0x01	; 1
    228c:	50 40       	sbci	r21, 0x00	; 0
    228e:	a9 f7       	brne	.-22     	; 0x227a <__mulsf3_pse+0x64>
    2290:	9e 3f       	cpi	r25, 0xFE	; 254
    2292:	51 05       	cpc	r21, r1
    2294:	70 f0       	brcs	.+28     	; 0x22b2 <__mulsf3_pse+0x9c>
    2296:	23 cf       	rjmp	.-442    	; 0x20de <__fp_inf>
    2298:	a3 cf       	rjmp	.-186    	; 0x21e0 <__fp_szero>
    229a:	5f 3f       	cpi	r21, 0xFF	; 255
    229c:	ec f3       	brlt	.-6      	; 0x2298 <__mulsf3_pse+0x82>
    229e:	98 3e       	cpi	r25, 0xE8	; 232
    22a0:	dc f3       	brlt	.-10     	; 0x2298 <__mulsf3_pse+0x82>
    22a2:	86 95       	lsr	r24
    22a4:	77 95       	ror	r23
    22a6:	67 95       	ror	r22
    22a8:	b7 95       	ror	r27
    22aa:	f7 95       	ror	r31
    22ac:	e7 95       	ror	r30
    22ae:	9f 5f       	subi	r25, 0xFF	; 255
    22b0:	c1 f7       	brne	.-16     	; 0x22a2 <__mulsf3_pse+0x8c>
    22b2:	fe 2b       	or	r31, r30
    22b4:	88 0f       	add	r24, r24
    22b6:	91 1d       	adc	r25, r1
    22b8:	96 95       	lsr	r25
    22ba:	87 95       	ror	r24
    22bc:	97 f9       	bld	r25, 7
    22be:	08 95       	ret
    22c0:	11 f4       	brne	.+4      	; 0x22c6 <__mulsf3_pse+0xb0>
    22c2:	0e f4       	brtc	.+2      	; 0x22c6 <__mulsf3_pse+0xb0>
    22c4:	12 cf       	rjmp	.-476    	; 0x20ea <__fp_nan>
    22c6:	4d c0       	rjmp	.+154    	; 0x2362 <__fp_mpack>

000022c8 <sqrt>:
    22c8:	70 df       	rcall	.-288    	; 0x21aa <__fp_splitA>
    22ca:	d0 f3       	brcs	.-12     	; 0x22c0 <__mulsf3_pse+0xaa>
    22cc:	99 23       	and	r25, r25
    22ce:	d9 f3       	breq	.-10     	; 0x22c6 <__mulsf3_pse+0xb0>
    22d0:	ce f3       	brts	.-14     	; 0x22c4 <__mulsf3_pse+0xae>
    22d2:	9f 57       	subi	r25, 0x7F	; 127
    22d4:	55 0b       	sbc	r21, r21
    22d6:	87 ff       	sbrs	r24, 7
    22d8:	54 d0       	rcall	.+168    	; 0x2382 <__fp_norm2>
    22da:	56 95       	lsr	r21
    22dc:	97 95       	ror	r25
    22de:	b0 e0       	ldi	r27, 0x00	; 0
    22e0:	20 f4       	brcc	.+8      	; 0x22ea <sqrt+0x22>
    22e2:	66 0f       	add	r22, r22
    22e4:	77 1f       	adc	r23, r23
    22e6:	88 1f       	adc	r24, r24
    22e8:	bb 1f       	adc	r27, r27
    22ea:	1f 93       	push	r17
    22ec:	0f 93       	push	r16
    22ee:	00 24       	eor	r0, r0
    22f0:	90 01       	movw	r18, r0
    22f2:	a0 01       	movw	r20, r0
    22f4:	80 01       	movw	r16, r0
    22f6:	f0 01       	movw	r30, r0
    22f8:	a0 e8       	ldi	r26, 0x80	; 128
    22fa:	0e 0f       	add	r16, r30
    22fc:	1f 1f       	adc	r17, r31
    22fe:	0a 1e       	adc	r0, r26
    2300:	51 1d       	adc	r21, r1
    2302:	60 1b       	sub	r22, r16
    2304:	71 0b       	sbc	r23, r17
    2306:	80 09       	sbc	r24, r0
    2308:	b5 0b       	sbc	r27, r21
    230a:	48 f4       	brcc	.+18     	; 0x231e <sqrt+0x56>
    230c:	60 0f       	add	r22, r16
    230e:	71 1f       	adc	r23, r17
    2310:	80 1d       	adc	r24, r0
    2312:	b5 1f       	adc	r27, r21
    2314:	0e 1b       	sub	r16, r30
    2316:	1f 0b       	sbc	r17, r31
    2318:	0a 0a       	sbc	r0, r26
    231a:	51 09       	sbc	r21, r1
    231c:	07 c0       	rjmp	.+14     	; 0x232c <sqrt+0x64>
    231e:	2e 0f       	add	r18, r30
    2320:	3f 1f       	adc	r19, r31
    2322:	4a 1f       	adc	r20, r26
    2324:	0e 0f       	add	r16, r30
    2326:	1f 1f       	adc	r17, r31
    2328:	0a 1e       	adc	r0, r26
    232a:	51 1d       	adc	r21, r1
    232c:	66 0f       	add	r22, r22
    232e:	77 1f       	adc	r23, r23
    2330:	88 1f       	adc	r24, r24
    2332:	bb 1f       	adc	r27, r27
    2334:	a6 95       	lsr	r26
    2336:	f7 95       	ror	r31
    2338:	e7 95       	ror	r30
    233a:	f8 f6       	brcc	.-66     	; 0x22fa <sqrt+0x32>
    233c:	06 17       	cp	r16, r22
    233e:	17 07       	cpc	r17, r23
    2340:	08 06       	cpc	r0, r24
    2342:	5b 07       	cpc	r21, r27
    2344:	21 1d       	adc	r18, r1
    2346:	31 1d       	adc	r19, r1
    2348:	41 1d       	adc	r20, r1
    234a:	0f 91       	pop	r16
    234c:	1f 91       	pop	r17
    234e:	b9 01       	movw	r22, r18
    2350:	84 2f       	mov	r24, r20
    2352:	91 58       	subi	r25, 0x81	; 129
    2354:	88 0f       	add	r24, r24
    2356:	96 95       	lsr	r25
    2358:	87 95       	ror	r24
    235a:	08 95       	ret

0000235c <square>:
    235c:	9b 01       	movw	r18, r22
    235e:	ac 01       	movw	r20, r24
    2360:	4c cf       	rjmp	.-360    	; 0x21fa <__mulsf3>

00002362 <__fp_mpack>:
    2362:	9f 3f       	cpi	r25, 0xFF	; 255
    2364:	49 f0       	breq	.+18     	; 0x2378 <__fp_mpack+0x16>
    2366:	91 50       	subi	r25, 0x01	; 1
    2368:	28 f4       	brcc	.+10     	; 0x2374 <__fp_mpack+0x12>
    236a:	86 95       	lsr	r24
    236c:	77 95       	ror	r23
    236e:	67 95       	ror	r22
    2370:	b7 95       	ror	r27
    2372:	9f 5f       	subi	r25, 0xFF	; 255
    2374:	80 38       	cpi	r24, 0x80	; 128
    2376:	9f 4f       	sbci	r25, 0xFF	; 255
    2378:	88 0f       	add	r24, r24
    237a:	96 95       	lsr	r25
    237c:	87 95       	ror	r24
    237e:	97 f9       	bld	r25, 7
    2380:	08 95       	ret

00002382 <__fp_norm2>:
    2382:	91 50       	subi	r25, 0x01	; 1
    2384:	50 40       	sbci	r21, 0x00	; 0
    2386:	66 0f       	add	r22, r22
    2388:	77 1f       	adc	r23, r23
    238a:	88 1f       	adc	r24, r24
    238c:	d2 f7       	brpl	.-12     	; 0x2382 <__fp_norm2>
    238e:	08 95       	ret

00002390 <__udivmodqi4>:
    2390:	99 1b       	sub	r25, r25
    2392:	79 e0       	ldi	r23, 0x09	; 9
    2394:	04 c0       	rjmp	.+8      	; 0x239e <__udivmodqi4_ep>

00002396 <__udivmodqi4_loop>:
    2396:	99 1f       	adc	r25, r25
    2398:	96 17       	cp	r25, r22
    239a:	08 f0       	brcs	.+2      	; 0x239e <__udivmodqi4_ep>
    239c:	96 1b       	sub	r25, r22

0000239e <__udivmodqi4_ep>:
    239e:	88 1f       	adc	r24, r24
    23a0:	7a 95       	dec	r23
    23a2:	c9 f7       	brne	.-14     	; 0x2396 <__udivmodqi4_loop>
    23a4:	80 95       	com	r24
    23a6:	08 95       	ret

000023a8 <__udivmodhi4>:
    23a8:	aa 1b       	sub	r26, r26
    23aa:	bb 1b       	sub	r27, r27
    23ac:	51 e1       	ldi	r21, 0x11	; 17
    23ae:	07 c0       	rjmp	.+14     	; 0x23be <__udivmodhi4_ep>

000023b0 <__udivmodhi4_loop>:
    23b0:	aa 1f       	adc	r26, r26
    23b2:	bb 1f       	adc	r27, r27
    23b4:	a6 17       	cp	r26, r22
    23b6:	b7 07       	cpc	r27, r23
    23b8:	10 f0       	brcs	.+4      	; 0x23be <__udivmodhi4_ep>
    23ba:	a6 1b       	sub	r26, r22
    23bc:	b7 0b       	sbc	r27, r23

000023be <__udivmodhi4_ep>:
    23be:	88 1f       	adc	r24, r24
    23c0:	99 1f       	adc	r25, r25
    23c2:	5a 95       	dec	r21
    23c4:	a9 f7       	brne	.-22     	; 0x23b0 <__udivmodhi4_loop>
    23c6:	80 95       	com	r24
    23c8:	90 95       	com	r25
    23ca:	bc 01       	movw	r22, r24
    23cc:	cd 01       	movw	r24, r26
    23ce:	08 95       	ret

000023d0 <__divmodhi4>:
    23d0:	97 fb       	bst	r25, 7
    23d2:	09 2e       	mov	r0, r25
    23d4:	07 26       	eor	r0, r23
    23d6:	0a d0       	rcall	.+20     	; 0x23ec <__divmodhi4_neg1>
    23d8:	77 fd       	sbrc	r23, 7
    23da:	04 d0       	rcall	.+8      	; 0x23e4 <__divmodhi4_neg2>
    23dc:	e5 df       	rcall	.-54     	; 0x23a8 <__udivmodhi4>
    23de:	06 d0       	rcall	.+12     	; 0x23ec <__divmodhi4_neg1>
    23e0:	00 20       	and	r0, r0
    23e2:	1a f4       	brpl	.+6      	; 0x23ea <__divmodhi4_exit>

000023e4 <__divmodhi4_neg2>:
    23e4:	70 95       	com	r23
    23e6:	61 95       	neg	r22
    23e8:	7f 4f       	sbci	r23, 0xFF	; 255

000023ea <__divmodhi4_exit>:
    23ea:	08 95       	ret

000023ec <__divmodhi4_neg1>:
    23ec:	f6 f7       	brtc	.-4      	; 0x23ea <__divmodhi4_exit>
    23ee:	90 95       	com	r25
    23f0:	81 95       	neg	r24
    23f2:	9f 4f       	sbci	r25, 0xFF	; 255
    23f4:	08 95       	ret

000023f6 <__prologue_saves__>:
    23f6:	2f 92       	push	r2
    23f8:	3f 92       	push	r3
    23fa:	4f 92       	push	r4
    23fc:	5f 92       	push	r5
    23fe:	6f 92       	push	r6
    2400:	7f 92       	push	r7
    2402:	8f 92       	push	r8
    2404:	9f 92       	push	r9
    2406:	af 92       	push	r10
    2408:	bf 92       	push	r11
    240a:	cf 92       	push	r12
    240c:	df 92       	push	r13
    240e:	ef 92       	push	r14
    2410:	ff 92       	push	r15
    2412:	0f 93       	push	r16
    2414:	1f 93       	push	r17
    2416:	cf 93       	push	r28
    2418:	df 93       	push	r29
    241a:	cd b7       	in	r28, 0x3d	; 61
    241c:	de b7       	in	r29, 0x3e	; 62
    241e:	ca 1b       	sub	r28, r26
    2420:	db 0b       	sbc	r29, r27
    2422:	0f b6       	in	r0, 0x3f	; 63
    2424:	f8 94       	cli
    2426:	de bf       	out	0x3e, r29	; 62
    2428:	0f be       	out	0x3f, r0	; 63
    242a:	cd bf       	out	0x3d, r28	; 61
    242c:	09 94       	ijmp

0000242e <__epilogue_restores__>:
    242e:	2a 88       	ldd	r2, Y+18	; 0x12
    2430:	39 88       	ldd	r3, Y+17	; 0x11
    2432:	48 88       	ldd	r4, Y+16	; 0x10
    2434:	5f 84       	ldd	r5, Y+15	; 0x0f
    2436:	6e 84       	ldd	r6, Y+14	; 0x0e
    2438:	7d 84       	ldd	r7, Y+13	; 0x0d
    243a:	8c 84       	ldd	r8, Y+12	; 0x0c
    243c:	9b 84       	ldd	r9, Y+11	; 0x0b
    243e:	aa 84       	ldd	r10, Y+10	; 0x0a
    2440:	b9 84       	ldd	r11, Y+9	; 0x09
    2442:	c8 84       	ldd	r12, Y+8	; 0x08
    2444:	df 80       	ldd	r13, Y+7	; 0x07
    2446:	ee 80       	ldd	r14, Y+6	; 0x06
    2448:	fd 80       	ldd	r15, Y+5	; 0x05
    244a:	0c 81       	ldd	r16, Y+4	; 0x04
    244c:	1b 81       	ldd	r17, Y+3	; 0x03
    244e:	aa 81       	ldd	r26, Y+2	; 0x02
    2450:	b9 81       	ldd	r27, Y+1	; 0x01
    2452:	ce 0f       	add	r28, r30
    2454:	d1 1d       	adc	r29, r1
    2456:	0f b6       	in	r0, 0x3f	; 63
    2458:	f8 94       	cli
    245a:	de bf       	out	0x3e, r29	; 62
    245c:	0f be       	out	0x3f, r0	; 63
    245e:	cd bf       	out	0x3d, r28	; 61
    2460:	ed 01       	movw	r28, r26
    2462:	08 95       	ret

00002464 <_exit>:
    2464:	ff cf       	rjmp	.-2      	; 0x2464 <_exit>
